libopenzwave.so.1.6:_Z10TiXmlFOpenPKcS0_
libopenzwave.so.1.6:_Z20WaitMultipleCallbackPv
libopenzwave.so.1.6:_Z5crc16PKhj
libopenzwave.so.1.6:_Z8GetColorNSt7__cxx1112basic_stringIcSt11char_traitsIcESaIcEEEh
libopenzwave.so.1.6:_ZN11TiXmlString6appendEPKcm
libopenzwave.so.1.6:_ZN11TiXmlString6assignEPKcm
libopenzwave.so.1.6:_ZN11TiXmlString7reserveEm
libopenzwave.so.1.6:_ZN12TiXmlComment5ParseEPKcP16TiXmlParsingData13TiXmlEncoding
libopenzwave.so.1.6:_ZN12TiXmlCommentC1ERKS_
libopenzwave.so.1.6:_ZN12TiXmlCommentC2ERKS_
libopenzwave.so.1.6:_ZN12TiXmlCommentaSERKS_
libopenzwave.so.1.6:_ZN12TiXmlElement12SetAttributeEPKcS1_
libopenzwave.so.1.6:_ZN12TiXmlElement12SetAttributeEPKci
libopenzwave.so.1.6:_ZN12TiXmlElement15RemoveAttributeEPKc
libopenzwave.so.1.6:_ZN12TiXmlElement18SetDoubleAttributeEPKcd
libopenzwave.so.1.6:_ZN12TiXmlElement5ParseEPKcP16TiXmlParsingData13TiXmlEncoding
libopenzwave.so.1.6:_ZN12TiXmlElement9ClearThisEv
libopenzwave.so.1.6:_ZN12TiXmlElement9ReadValueEPKcP16TiXmlParsingData13TiXmlEncoding
libopenzwave.so.1.6:_ZN12TiXmlElementC1EPKc
libopenzwave.so.1.6:_ZN12TiXmlElementC1ERKS_
libopenzwave.so.1.6:_ZN12TiXmlElementC2EPKc
libopenzwave.so.1.6:_ZN12TiXmlElementC2ERKS_
libopenzwave.so.1.6:_ZN12TiXmlElementD0Ev
libopenzwave.so.1.6:_ZN12TiXmlElementD1Ev
libopenzwave.so.1.6:_ZN12TiXmlElementD2Ev
libopenzwave.so.1.6:_ZN12TiXmlElementaSERKS_
libopenzwave.so.1.6:_ZN12TiXmlPrinter10VisitEnterERK12TiXmlElementPK14TiXmlAttribute
libopenzwave.so.1.6:_ZN12TiXmlPrinter10VisitEnterERK13TiXmlDocument
libopenzwave.so.1.6:_ZN12TiXmlPrinter5VisitERK12TiXmlComment
libopenzwave.so.1.6:_ZN12TiXmlPrinter5VisitERK12TiXmlUnknown
libopenzwave.so.1.6:_ZN12TiXmlPrinter5VisitERK16TiXmlDeclaration
libopenzwave.so.1.6:_ZN12TiXmlPrinter5VisitERK9TiXmlText
libopenzwave.so.1.6:_ZN12TiXmlPrinter9VisitExitERK12TiXmlElement
libopenzwave.so.1.6:_ZN12TiXmlPrinter9VisitExitERK13TiXmlDocument
libopenzwave.so.1.6:_ZN12TiXmlUnknown5ParseEPKcP16TiXmlParsingData13TiXmlEncoding
libopenzwave.so.1.6:_ZN13TiXmlDocument5ParseEPKcP16TiXmlParsingData13TiXmlEncoding
libopenzwave.so.1.6:_ZN13TiXmlDocument8LoadFileE13TiXmlEncoding
libopenzwave.so.1.6:_ZN13TiXmlDocument8LoadFileEP8_IO_FILE13TiXmlEncoding
libopenzwave.so.1.6:_ZN13TiXmlDocument8LoadFileEPKc13TiXmlEncoding
libopenzwave.so.1.6:_ZN13TiXmlDocument8SetErrorEiPKcP16TiXmlParsingData13TiXmlEncoding
libopenzwave.so.1.6:_ZN13TiXmlDocumentC1EPKc
libopenzwave.so.1.6:_ZN13TiXmlDocumentC1ERKS_
libopenzwave.so.1.6:_ZN13TiXmlDocumentC1Ev
libopenzwave.so.1.6:_ZN13TiXmlDocumentC2EPKc
libopenzwave.so.1.6:_ZN13TiXmlDocumentC2ERKS_
libopenzwave.so.1.6:_ZN13TiXmlDocumentC2Ev
libopenzwave.so.1.6:_ZN13TiXmlDocumentaSERKS_
libopenzwave.so.1.6:_ZN14TiXmlAttribute11SetIntValueEi
libopenzwave.so.1.6:_ZN14TiXmlAttribute14SetDoubleValueEd
libopenzwave.so.1.6:_ZN14TiXmlAttribute5ParseEPKcP16TiXmlParsingData13TiXmlEncoding
libopenzwave.so.1.6:_ZN16TiXmlDeclaration5ParseEPKcP16TiXmlParsingData13TiXmlEncoding
libopenzwave.so.1.6:_ZN16TiXmlDeclarationC1EPKcS1_S1_
libopenzwave.so.1.6:_ZN16TiXmlDeclarationC1ERKS_
libopenzwave.so.1.6:_ZN16TiXmlDeclarationC2EPKcS1_S1_
libopenzwave.so.1.6:_ZN16TiXmlDeclarationC2ERKS_
libopenzwave.so.1.6:_ZN16TiXmlDeclarationaSERKS_
libopenzwave.so.1.6:_ZN16TiXmlParsingData5StampEPKc13TiXmlEncoding
libopenzwave.so.1.6:_ZN17TiXmlAttributeSet3AddEP14TiXmlAttribute
libopenzwave.so.1.6:_ZN17TiXmlAttributeSet6RemoveEP14TiXmlAttribute
libopenzwave.so.1.6:_ZN17TiXmlAttributeSetC1Ev
libopenzwave.so.1.6:_ZN17TiXmlAttributeSetC2Ev
libopenzwave.so.1.6:_ZN17TiXmlAttributeSetD1Ev
libopenzwave.so.1.6:_ZN17TiXmlAttributeSetD2Ev
libopenzwave.so.1.6:_ZN9OpenZWave10CRC16Encap6CreateEjh
libopenzwave.so.1.6:_ZN9OpenZWave10CRC16Encap9HandleMsgEPKhjj
libopenzwave.so.1.6:_ZN9OpenZWave10Controller16PlayInitSequenceEPNS_6DriverE
libopenzwave.so.1.6:_ZN9OpenZWave10Controller4ReadEPhj
libopenzwave.so.1.6:_ZN9OpenZWave10HttpClient13StartDownloadEPNS_12HttpDownloadE
libopenzwave.so.1.6:_ZN9OpenZWave10HttpClient14HttpThreadProcEPNS_5EventEPv
libopenzwave.so.1.6:_ZN9OpenZWave10HttpClientC1EPNS_6DriverE
libopenzwave.so.1.6:_ZN9OpenZWave10HttpClientC2EPNS_6DriverE
libopenzwave.so.1.6:_ZN9OpenZWave10HttpClientD0Ev
libopenzwave.so.1.6:_ZN9OpenZWave10HttpClientD1Ev
libopenzwave.so.1.6:_ZN9OpenZWave10HttpClientD2Ev
libopenzwave.so.1.6:_ZN9OpenZWave10MeterPulse10CreateVarsEh
libopenzwave.so.1.6:_ZN9OpenZWave10MeterPulse12RequestStateEjhNS_6Driver8MsgQueueE
libopenzwave.so.1.6:_ZN9OpenZWave10MeterPulse12RequestValueEjthNS_6Driver8MsgQueueE
libopenzwave.so.1.6:_ZN9OpenZWave10MeterPulse6CreateEjh
libopenzwave.so.1.6:_ZN9OpenZWave10MeterPulse9HandleMsgEPKhjj
libopenzwave.so.1.6:_ZN9OpenZWave10NodeNaming11SetLocationERKNSt7__cxx1112basic_stringIcSt11char_traitsIcESaIcEEE
libopenzwave.so.1.6:_ZN9OpenZWave10NodeNaming12RequestStateEjhNS_6Driver8MsgQueueE
libopenzwave.so.1.6:_ZN9OpenZWave10NodeNaming12RequestValueEjthNS_6Driver8MsgQueueE
libopenzwave.so.1.6:_ZN9OpenZWave10NodeNaming6CreateEjh
libopenzwave.so.1.6:_ZN9OpenZWave10NodeNaming7SetNameERKNSt7__cxx1112basic_stringIcSt11char_traitsIcESaIcEEE
libopenzwave.so.1.6:_ZN9OpenZWave10NodeNaming9HandleMsgEPKhjj
libopenzwave.so.1.6:_ZN9OpenZWave10Powerlevel10CreateVarsEh
libopenzwave.so.1.6:_ZN9OpenZWave10Powerlevel12RequestStateEjhNS_6Driver8MsgQueueE
libopenzwave.so.1.6:_ZN9OpenZWave10Powerlevel12RequestValueEjthNS_6Driver8MsgQueueE
libopenzwave.so.1.6:_ZN9OpenZWave10Powerlevel3SetEh
libopenzwave.so.1.6:_ZN9OpenZWave10Powerlevel4TestEh
libopenzwave.so.1.6:_ZN9OpenZWave10Powerlevel6CreateEjh
libopenzwave.so.1.6:_ZN9OpenZWave10Powerlevel6ReportEh
libopenzwave.so.1.6:_ZN9OpenZWave10Powerlevel8SetValueERKNS_5ValueE
libopenzwave.so.1.6:_ZN9OpenZWave10Powerlevel9HandleMsgEPKhjj
libopenzwave.so.1.6:_ZN9OpenZWave10Protection10CreateVarsEh
libopenzwave.so.1.6:_ZN9OpenZWave10Protection12RequestStateEjhNS_6Driver8MsgQueueE
libopenzwave.so.1.6:_ZN9OpenZWave10Protection12RequestValueEjthNS_6Driver8MsgQueueE
libopenzwave.so.1.6:_ZN9OpenZWave10Protection6CreateEjh
libopenzwave.so.1.6:_ZN9OpenZWave10Protection8SetValueERKNS_5ValueE
libopenzwave.so.1.6:_ZN9OpenZWave10Protection9HandleMsgEPKhjj
libopenzwave.so.1.6:_ZN9OpenZWave10ThreadImpl10ThreadProcEPv
libopenzwave.so.1.6:_ZN9OpenZWave10ThreadImpl11IsSignalledEv
libopenzwave.so.1.6:_ZN9OpenZWave10ThreadImpl3RunEv
libopenzwave.so.1.6:_ZN9OpenZWave10ThreadImpl5SleepEj
libopenzwave.so.1.6:_ZN9OpenZWave10ThreadImpl5StartEPFvPNS_5EventEPvES2_S3_
libopenzwave.so.1.6:_ZN9OpenZWave10ThreadImpl9TerminateEv
libopenzwave.so.1.6:_ZN9OpenZWave10ThreadImplC1EPNS_6ThreadERKNSt7__cxx1112basic_stringIcSt11char_traitsIcESaIcEEE
libopenzwave.so.1.6:_ZN9OpenZWave10ThreadImplC2EPNS_6ThreadERKNSt7__cxx1112basic_stringIcSt11char_traitsIcESaIcEEE
libopenzwave.so.1.6:_ZN9OpenZWave10ThreadImplD1Ev
libopenzwave.so.1.6:_ZN9OpenZWave10ThreadImplD2Ev
libopenzwave.so.1.6:_ZN9OpenZWave10ValueShort13SetFromStringERKNSt7__cxx1112basic_stringIcSt11char_traitsIcESaIcEEE
libopenzwave.so.1.6:_ZN9OpenZWave10ValueShort16OnValueRefreshedEs
libopenzwave.so.1.6:_ZN9OpenZWave10ValueShort3SetEs
libopenzwave.so.1.6:_ZN9OpenZWave10ValueShort7ReadXMLEjhhPK12TiXmlElement
libopenzwave.so.1.6:_ZN9OpenZWave10ValueShort8WriteXMLEP12TiXmlElement
libopenzwave.so.1.6:_ZN9OpenZWave10ValueShortC1EjhNS_7ValueID10ValueGenreEhhtRKNSt7__cxx1112basic_stringIcSt11char_traitsIcESaIcEEESA_bbsh
libopenzwave.so.1.6:_ZN9OpenZWave10ValueShortC1Ev
libopenzwave.so.1.6:_ZN9OpenZWave10ValueShortC2EjhNS_7ValueID10ValueGenreEhhtRKNSt7__cxx1112basic_stringIcSt11char_traitsIcESaIcEEESA_bbsh
libopenzwave.so.1.6:_ZN9OpenZWave10ValueShortC2Ev
libopenzwave.so.1.6:_ZN9OpenZWave10ValueStore11RemoveValueERKj
libopenzwave.so.1.6:_ZN9OpenZWave10ValueStore24RemoveCommandClassValuesEh
libopenzwave.so.1.6:_ZN9OpenZWave10ValueStore8AddValueEPNS_5ValueE
libopenzwave.so.1.6:_ZN9OpenZWave10ValueStoreD1Ev
libopenzwave.so.1.6:_ZN9OpenZWave10ValueStoreD2Ev
libopenzwave.so.1.6:_ZN9OpenZWave10ozwdirnameENSt7__cxx1112basic_stringIcSt11char_traitsIcESaIcEEE
libopenzwave.so.1.6:_ZN9OpenZWave11Association10QueryGroupEhj
libopenzwave.so.1.6:_ZN9OpenZWave11Association12RequestStateEjhNS_6Driver8MsgQueueE
libopenzwave.so.1.6:_ZN9OpenZWave11Association12RequestValueEjthNS_6Driver8MsgQueueE
libopenzwave.so.1.6:_ZN9OpenZWave11Association16RequestAllGroupsEj
libopenzwave.so.1.6:_ZN9OpenZWave11Association3SetEhh
libopenzwave.so.1.6:_ZN9OpenZWave11Association6CreateEjh
libopenzwave.so.1.6:_ZN9OpenZWave11Association6RemoveEhh
libopenzwave.so.1.6:_ZN9OpenZWave11Association7ReadXMLEPK12TiXmlElement
libopenzwave.so.1.6:_ZN9OpenZWave11Association8WriteXMLEP12TiXmlElement
libopenzwave.so.1.6:_ZN9OpenZWave11Association9HandleMsgEPKhjj
libopenzwave.so.1.6:_ZN9OpenZWave11AssociationC1Ejh
libopenzwave.so.1.6:_ZN9OpenZWave11AssociationC2Ejh
libopenzwave.so.1.6:_ZN9OpenZWave11FileOpsImpl10FileExistsENSt7__cxx1112basic_stringIcSt11char_traitsIcESaIcEEE
libopenzwave.so.1.6:_ZN9OpenZWave11FileOpsImpl10FileRotateENSt7__cxx1112basic_stringIcSt11char_traitsIcESaIcEEE
libopenzwave.so.1.6:_ZN9OpenZWave11FileOpsImpl12FolderCreateENSt7__cxx1112basic_stringIcSt11char_traitsIcESaIcEEE
libopenzwave.so.1.6:_ZN9OpenZWave11FileOpsImpl12FolderExistsENSt7__cxx1112basic_stringIcSt11char_traitsIcESaIcEEE
libopenzwave.so.1.6:_ZN9OpenZWave11FileOpsImpl13FileWriteableENSt7__cxx1112basic_stringIcSt11char_traitsIcESaIcEEE
libopenzwave.so.1.6:_ZN9OpenZWave11FileOpsImpl8FileCopyENSt7__cxx1112basic_stringIcSt11char_traitsIcESaIcEEES6_
libopenzwave.so.1.6:_ZN9OpenZWave11FileOpsImplC1Ev
libopenzwave.so.1.6:_ZN9OpenZWave11FileOpsImplC2Ev
libopenzwave.so.1.6:_ZN9OpenZWave11FileOpsImplD1Ev
libopenzwave.so.1.6:_ZN9OpenZWave11FileOpsImplD2Ev
libopenzwave.so.1.6:_ZN9OpenZWave11NoOperation3SetEbNS_6Driver8MsgQueueE
libopenzwave.so.1.6:_ZN9OpenZWave11NoOperation6CreateEjh
libopenzwave.so.1.6:_ZN9OpenZWave11NoOperation9HandleMsgEPKhjj
libopenzwave.so.1.6:_ZN9OpenZWave11PktToStringB5cxx11EPKhj
libopenzwave.so.1.6:_ZN9OpenZWave11Proprietary6CreateEjh
libopenzwave.so.1.6:_ZN9OpenZWave11Proprietary9HandleMsgEPKhjj
libopenzwave.so.1.6:_ZN9OpenZWave11SensorAlarm12RequestStateEjhNS_6Driver8MsgQueueE
libopenzwave.so.1.6:_ZN9OpenZWave11SensorAlarm12RequestValueEjthNS_6Driver8MsgQueueE
libopenzwave.so.1.6:_ZN9OpenZWave11SensorAlarm6CreateEjh
libopenzwave.so.1.6:_ZN9OpenZWave11SensorAlarm9HandleMsgEPKhjj
libopenzwave.so.1.6:_ZN9OpenZWave11SensorAlarmC1Ejh
libopenzwave.so.1.6:_ZN9OpenZWave11SensorAlarmC2Ejh
libopenzwave.so.1.6:_ZN9OpenZWave11SoundSwitch10CreateVarsEh
libopenzwave.so.1.6:_ZN9OpenZWave11SoundSwitch12RequestStateEjhNS_6Driver8MsgQueueE
libopenzwave.so.1.6:_ZN9OpenZWave11SoundSwitch12RequestValueEjthNS_6Driver8MsgQueueE
libopenzwave.so.1.6:_ZN9OpenZWave11SoundSwitch6CreateEjh
libopenzwave.so.1.6:_ZN9OpenZWave11SoundSwitch8SetValueERKNS_5ValueE
libopenzwave.so.1.6:_ZN9OpenZWave11SoundSwitch9HandleMsgEPKhjj
libopenzwave.so.1.6:_ZN9OpenZWave11SoundSwitchC1Ejh
libopenzwave.so.1.6:_ZN9OpenZWave11SoundSwitchC2Ejh
libopenzwave.so.1.6:_ZN9OpenZWave11TimerThread13TimerDelEventEPNS0_15TimerEventEntryE
libopenzwave.so.1.6:_ZN9OpenZWave11TimerThread13TimerSetEventEiSt8functionIFvjEEPNS_5TimerEj
libopenzwave.so.1.6:_ZN9OpenZWave11TimerThread15TimerThreadProcEPNS_5EventE
libopenzwave.so.1.6:_ZN9OpenZWave11TimerThread21TimerThreadEntryPointEPNS_5EventEPv
libopenzwave.so.1.6:_ZN9OpenZWave11TimerThreadC1EPNS_6DriverE
libopenzwave.so.1.6:_ZN9OpenZWave11TimerThreadC2EPNS_6DriverE
libopenzwave.so.1.6:_ZN9OpenZWave11TimerThreadD1Ev
libopenzwave.so.1.6:_ZN9OpenZWave11TimerThreadD2Ev
libopenzwave.so.1.6:_ZN9OpenZWave11ValueBitSet10GetBitHelpB5cxx11Eh
libopenzwave.so.1.6:_ZN9OpenZWave11ValueBitSet10SetBitHelpEhNSt7__cxx1112basic_stringIcSt11char_traitsIcESaIcEEE
libopenzwave.so.1.6:_ZN9OpenZWave11ValueBitSet10SetBitMaskEj
libopenzwave.so.1.6:_ZN9OpenZWave11ValueBitSet11GetBitLabelB5cxx11Eh
libopenzwave.so.1.6:_ZN9OpenZWave11ValueBitSet11SetBitLabelEhNSt7__cxx1112basic_stringIcSt11char_traitsIcESaIcEEE
libopenzwave.so.1.6:_ZN9OpenZWave11ValueBitSet13SetFromStringERKNSt7__cxx1112basic_stringIcSt11char_traitsIcESaIcEEE
libopenzwave.so.1.6:_ZN9OpenZWave11ValueBitSet16OnValueRefreshedEj
libopenzwave.so.1.6:_ZN9OpenZWave11ValueBitSet3SetEj
libopenzwave.so.1.6:_ZN9OpenZWave11ValueBitSet6SetBitEh
libopenzwave.so.1.6:_ZN9OpenZWave11ValueBitSet7ReadXMLEjhhPK12TiXmlElement
libopenzwave.so.1.6:_ZN9OpenZWave11ValueBitSet7SetSizeEh
libopenzwave.so.1.6:_ZN9OpenZWave11ValueBitSet8ClearBitEh
libopenzwave.so.1.6:_ZN9OpenZWave11ValueBitSet8WriteXMLEP12TiXmlElement
libopenzwave.so.1.6:_ZN9OpenZWave11ValueBitSetC1EjhNS_7ValueID10ValueGenreEhhtRKNSt7__cxx1112basic_stringIcSt11char_traitsIcESaIcEEESA_bbjh
libopenzwave.so.1.6:_ZN9OpenZWave11ValueBitSetC2EjhNS_7ValueID10ValueGenreEhhtRKNSt7__cxx1112basic_stringIcSt11char_traitsIcESaIcEEESA_bbjh
libopenzwave.so.1.6:_ZN9OpenZWave11ValueButton11PressButtonEv
libopenzwave.so.1.6:_ZN9OpenZWave11ValueButton13ReleaseButtonEv
libopenzwave.so.1.6:_ZN9OpenZWave11ValueButton7ReadXMLEjhhPK12TiXmlElement
libopenzwave.so.1.6:_ZN9OpenZWave11ValueButton8WriteXMLEP12TiXmlElement
libopenzwave.so.1.6:_ZN9OpenZWave11ValueButtonC1EjhNS_7ValueID10ValueGenreEhhtRKNSt7__cxx1112basic_stringIcSt11char_traitsIcESaIcEEEh
libopenzwave.so.1.6:_ZN9OpenZWave11ValueButtonC2EjhNS_7ValueID10ValueGenreEhhtRKNSt7__cxx1112basic_stringIcSt11char_traitsIcESaIcEEEh
libopenzwave.so.1.6:_ZN9OpenZWave11ValueString16OnValueRefreshedERKNSt7__cxx1112basic_stringIcSt11char_traitsIcESaIcEEE
libopenzwave.so.1.6:_ZN9OpenZWave11ValueString3SetERKNSt7__cxx1112basic_stringIcSt11char_traitsIcESaIcEEE
libopenzwave.so.1.6:_ZN9OpenZWave11ValueString7ReadXMLEjhhPK12TiXmlElement
libopenzwave.so.1.6:_ZN9OpenZWave11ValueString8WriteXMLEP12TiXmlElement
libopenzwave.so.1.6:_ZN9OpenZWave11ValueStringC1EjhNS_7ValueID10ValueGenreEhhtRKNSt7__cxx1112basic_stringIcSt11char_traitsIcESaIcEEESA_bbSA_h
libopenzwave.so.1.6:_ZN9OpenZWave11ValueStringC2EjhNS_7ValueID10ValueGenreEhhtRKNSt7__cxx1112basic_stringIcSt11char_traitsIcESaIcEEESA_bbSA_h
libopenzwave.so.1.6:_ZN9OpenZWave11intToStringB5cxx11Ei
libopenzwave.so.1.6:_ZN9OpenZWave12CentralScene10ClearSceneEj
libopenzwave.so.1.6:_ZN9OpenZWave12CentralScene10CreateVarsEh
libopenzwave.so.1.6:_ZN9OpenZWave12CentralScene12RequestStateEjhNS_6Driver8MsgQueueE
libopenzwave.so.1.6:_ZN9OpenZWave12CentralScene12RequestValueEjthNS_6Driver8MsgQueueE
libopenzwave.so.1.6:_ZN9OpenZWave12CentralScene34createSupportedKeyAttributesValuesEhhh
libopenzwave.so.1.6:_ZN9OpenZWave12CentralScene6CreateEjh
libopenzwave.so.1.6:_ZN9OpenZWave12CentralScene8SetValueERKNS_5ValueE
libopenzwave.so.1.6:_ZN9OpenZWave12CentralScene9HandleMsgEPKhjj
libopenzwave.so.1.6:_ZN9OpenZWave12CentralSceneC1Ejh
libopenzwave.so.1.6:_ZN9OpenZWave12CentralSceneC2Ejh
libopenzwave.so.1.6:_ZN9OpenZWave12CommandClass10SetVersionEh
libopenzwave.so.1.6:_ZN9OpenZWave12CommandClass11RemoveValueEht
libopenzwave.so.1.6:_ZN9OpenZWave12CommandClass11SetInstanceEh
libopenzwave.so.1.6:_ZN9OpenZWave12CommandClass12SetInstancesEh
libopenzwave.so.1.6:_ZN9OpenZWave12CommandClass16GetInstanceLabelB5cxx11Eh
libopenzwave.so.1.6:_ZN9OpenZWave12CommandClass16SetInstanceLabelEhPc
libopenzwave.so.1.6:_ZN9OpenZWave12CommandClass16SetStaticRequestEh
libopenzwave.so.1.6:_ZN9OpenZWave12CommandClass17UpdateMappedClassEhhh
libopenzwave.so.1.6:_ZN9OpenZWave12CommandClass18ClearStaticRequestEh
libopenzwave.so.1.6:_ZN9OpenZWave12CommandClass19ReadValueRefreshXMLEPK12TiXmlElement
libopenzwave.so.1.6:_ZN9OpenZWave12CommandClass20GetCommandClassLabelB5cxx11Ev
libopenzwave.so.1.6:_ZN9OpenZWave12CommandClass20SetCommandClassLabelENSt7__cxx1112basic_stringIcSt11char_traitsIcESaIcEEE
libopenzwave.so.1.6:_ZN9OpenZWave12CommandClass21CheckForRefreshValuesEPKNS_5ValueE
libopenzwave.so.1.6:_ZN9OpenZWave12CommandClass21refreshValuesOnWakeupEv
libopenzwave.so.1.6:_ZN9OpenZWave12CommandClass27RequestStateForAllInstancesEjNS_6Driver8MsgQueueE
libopenzwave.so.1.6:_ZN9OpenZWave12CommandClass7ReadXMLEPK12TiXmlElement
libopenzwave.so.1.6:_ZN9OpenZWave12CommandClass8GetValueEht
libopenzwave.so.1.6:_ZN9OpenZWave12CommandClass8WriteXMLEP12TiXmlElement
libopenzwave.so.1.6:_ZN9OpenZWave12CommandClassC1Ejh
libopenzwave.so.1.6:_ZN9OpenZWave12CommandClassC2Ejh
libopenzwave.so.1.6:_ZN9OpenZWave12CommandClassD0Ev
libopenzwave.so.1.6:_ZN9OpenZWave12CommandClassD1Ev
libopenzwave.so.1.6:_ZN9OpenZWave12CommandClassD2Ev
libopenzwave.so.1.6:_ZN9OpenZWave12Localization11GetValueKeyEhtj
libopenzwave.so.1.6:_ZN9OpenZWave12Localization12GetValueHelpB5cxx11Ehtj
libopenzwave.so.1.6:_ZN9OpenZWave12Localization12ReadXMLValueEhPK12TiXmlElement
libopenzwave.so.1.6:_ZN9OpenZWave12Localization12SetValueHelpEhtjNSt7__cxx1112basic_stringIcSt11char_traitsIcESaIcEEES6_
libopenzwave.so.1.6:_ZN9OpenZWave12Localization13SetValueLabelEhtjNSt7__cxx1112basic_stringIcSt11char_traitsIcESaIcEEES6_
libopenzwave.so.1.6:_ZN9OpenZWave12Localization14GetGlobalLabelENSt7__cxx1112basic_stringIcSt11char_traitsIcESaIcEEE
libopenzwave.so.1.6:_ZN9OpenZWave12Localization14ReadCCXMLLabelEhPK12TiXmlElement
libopenzwave.so.1.6:_ZN9OpenZWave12Localization14ReadXMLVIDHelpEhtjPK12TiXmlElement
libopenzwave.so.1.6:_ZN9OpenZWave12Localization14SetGlobalLabelENSt7__cxx1112basic_stringIcSt11char_traitsIcESaIcEEES6_S6_
libopenzwave.so.1.6:_ZN9OpenZWave12Localization15ReadXMLVIDLabelEhtjPK12TiXmlElement
libopenzwave.so.1.6:_ZN9OpenZWave12Localization15WriteXMLVIDHelpEhtjP12TiXmlElement
libopenzwave.so.1.6:_ZN9OpenZWave12Localization16SetValueItemHelpEhtiiNSt7__cxx1112basic_stringIcSt11char_traitsIcESaIcEEES6_
libopenzwave.so.1.6:_ZN9OpenZWave12Localization17SetValueItemLabelEhtiiNSt7__cxx1112basic_stringIcSt11char_traitsIcESaIcEEES6_
libopenzwave.so.1.6:_ZN9OpenZWave12Localization17SetupCommandClassEPNS_12CommandClassE
libopenzwave.so.1.6:_ZN9OpenZWave12Localization18ReadGlobalXMLLabelEPK12TiXmlElement
libopenzwave.so.1.6:_ZN9OpenZWave12Localization19ReadXMLVIDItemLabelEhtjPK12TiXmlElement
libopenzwave.so.1.6:_ZN9OpenZWave12Localization3GetEv
libopenzwave.so.1.6:_ZN9OpenZWave12Localization7ReadXMLEv
libopenzwave.so.1.6:_ZN9OpenZWave12LocalizationC1Ev
libopenzwave.so.1.6:_ZN9OpenZWave12LocalizationC2Ev
libopenzwave.so.1.6:_ZN9OpenZWave12SensorBinary10CreateVarsEh
libopenzwave.so.1.6:_ZN9OpenZWave12SensorBinary12RequestStateEjhNS_6Driver8MsgQueueE
libopenzwave.so.1.6:_ZN9OpenZWave12SensorBinary12RequestValueEjthNS_6Driver8MsgQueueE
libopenzwave.so.1.6:_ZN9OpenZWave12SensorBinary13SetValueBasicEhh
libopenzwave.so.1.6:_ZN9OpenZWave12SensorBinary6CreateEjh
libopenzwave.so.1.6:_ZN9OpenZWave12SensorBinary7ReadXMLEPK12TiXmlElement
libopenzwave.so.1.6:_ZN9OpenZWave12SensorBinary8WriteXMLEP12TiXmlElement
libopenzwave.so.1.6:_ZN9OpenZWave12SensorBinary9HandleMsgEPKhjj
libopenzwave.so.1.6:_ZN9OpenZWave12SwitchBinary10CreateVarsEh
libopenzwave.so.1.6:_ZN9OpenZWave12SwitchBinary12RequestStateEjhNS_6Driver8MsgQueueE
libopenzwave.so.1.6:_ZN9OpenZWave12SwitchBinary12RequestValueEjthNS_6Driver8MsgQueueE
libopenzwave.so.1.6:_ZN9OpenZWave12SwitchBinary13SetValueBasicEhh
libopenzwave.so.1.6:_ZN9OpenZWave12SwitchBinary6CreateEjh
libopenzwave.so.1.6:_ZN9OpenZWave12SwitchBinary8SetStateEhb
libopenzwave.so.1.6:_ZN9OpenZWave12SwitchBinary8SetValueERKNS_5ValueE
libopenzwave.so.1.6:_ZN9OpenZWave12SwitchBinary9HandleMsgEPKhjj
libopenzwave.so.1.6:_ZN9OpenZWave12ValueDecimal16OnValueRefreshedERKNSt7__cxx1112basic_stringIcSt11char_traitsIcESaIcEEE
libopenzwave.so.1.6:_ZN9OpenZWave12ValueDecimal3SetERKNSt7__cxx1112basic_stringIcSt11char_traitsIcESaIcEEE
libopenzwave.so.1.6:_ZN9OpenZWave12ValueDecimal7ReadXMLEjhhPK12TiXmlElement
libopenzwave.so.1.6:_ZN9OpenZWave12ValueDecimal8WriteXMLEP12TiXmlElement
libopenzwave.so.1.6:_ZN9OpenZWave12ValueDecimalC1EjhNS_7ValueID10ValueGenreEhhtRKNSt7__cxx1112basic_stringIcSt11char_traitsIcESaIcEEESA_bbSA_h
libopenzwave.so.1.6:_ZN9OpenZWave12ValueDecimalC2EjhNS_7ValueID10ValueGenreEhhtRKNSt7__cxx1112basic_stringIcSt11char_traitsIcESaIcEEESA_bbSA_h
libopenzwave.so.1.6:_ZN9OpenZWave12i_HttpClient14FinishDownloadEPNS_12HttpDownloadE
libopenzwave.so.1.6:_ZN9OpenZWave12i_HttpClientC1EPNS_6DriverE
libopenzwave.so.1.6:_ZN9OpenZWave12i_HttpClientC2EPNS_6DriverE
libopenzwave.so.1.6:_ZN9OpenZWave13Configuration12RequestValueEjthNS_6Driver8MsgQueueE
libopenzwave.so.1.6:_ZN9OpenZWave13Configuration3SetEtih
libopenzwave.so.1.6:_ZN9OpenZWave13Configuration6CreateEjh
libopenzwave.so.1.6:_ZN9OpenZWave13Configuration8SetValueERKNS_5ValueE
libopenzwave.so.1.6:_ZN9OpenZWave13Configuration9HandleMsgEPKhjj
libopenzwave.so.1.6:_ZN9OpenZWave13DecryptBufferEPhhPNS_6DriverEhhPKhS0_
libopenzwave.so.1.6:_ZN9OpenZWave13EncyrptBufferEPhhPNS_6DriverEhhPKhS0_
libopenzwave.so.1.6:_ZN9OpenZWave13ExtractStringB5cxx11EPKhj
libopenzwave.so.1.6:_ZN9OpenZWave13HidController10ThreadProcEPNS_5EventE
libopenzwave.so.1.6:_ZN9OpenZWave13HidController11SetVendorIdEj
libopenzwave.so.1.6:_ZN9OpenZWave13HidController12SetProductIdEj
libopenzwave.so.1.6:_ZN9OpenZWave13HidController15SetSerialNumberERKNSt7__cxx1112basic_stringIcSt11char_traitsIcESaIcEEE
libopenzwave.so.1.6:_ZN9OpenZWave13HidController16GetFeatureReportEjhPh
libopenzwave.so.1.6:_ZN9OpenZWave13HidController16ThreadEntryPointEPNS_5EventEPv
libopenzwave.so.1.6:_ZN9OpenZWave13HidController17SendFeatureReportEjPKh
libopenzwave.so.1.6:_ZN9OpenZWave13HidController4InitEj
libopenzwave.so.1.6:_ZN9OpenZWave13HidController4OpenERKNSt7__cxx1112basic_stringIcSt11char_traitsIcESaIcEEE
libopenzwave.so.1.6:_ZN9OpenZWave13HidController4ReadEv
libopenzwave.so.1.6:_ZN9OpenZWave13HidController5CloseEv
libopenzwave.so.1.6:_ZN9OpenZWave13HidController5WriteEPhj
libopenzwave.so.1.6:_ZN9OpenZWave13HidControllerC1Ev
libopenzwave.so.1.6:_ZN9OpenZWave13HidControllerC2Ev
libopenzwave.so.1.6:_ZN9OpenZWave13HidControllerD0Ev
libopenzwave.so.1.6:_ZN9OpenZWave13HidControllerD1Ev
libopenzwave.so.1.6:_ZN9OpenZWave13HidControllerD2Ev
libopenzwave.so.1.6:_ZN9OpenZWave13MultiInstance16RequestInstancesEv
libopenzwave.so.1.6:_ZN9OpenZWave13MultiInstance16SetInstanceLabelEhPc
libopenzwave.so.1.6:_ZN9OpenZWave13MultiInstance17HandleIncomingMsgEPKhjj
libopenzwave.so.1.6:_ZN9OpenZWave13MultiInstance23HandleMultiChannelEncapEPKhj
libopenzwave.so.1.6:_ZN9OpenZWave13MultiInstance24HandleMultiInstanceEncapEPKhj
libopenzwave.so.1.6:_ZN9OpenZWave13MultiInstance25HandleMultiInstanceReportEPKhj
libopenzwave.so.1.6:_ZN9OpenZWave13MultiInstance32HandleMultiChannelEndPointReportEPKhj
libopenzwave.so.1.6:_ZN9OpenZWave13MultiInstance34HandleMultiChannelCapabilityReportEPKhj
libopenzwave.so.1.6:_ZN9OpenZWave13MultiInstance36HandleMultiChannelEndPointFindReportEPKhj
libopenzwave.so.1.6:_ZN9OpenZWave13MultiInstance6CreateEjh
libopenzwave.so.1.6:_ZN9OpenZWave13MultiInstance9HandleMsgEPKhjj
libopenzwave.so.1.6:_ZN9OpenZWave13MultiInstanceC1Ejh
libopenzwave.so.1.6:_ZN9OpenZWave13MultiInstanceC2Ejh
libopenzwave.so.1.6:_ZN9OpenZWave13TimeStampImpl11GetAsStringB5cxx11Ev
libopenzwave.so.1.6:_ZN9OpenZWave13TimeStampImpl13TimeRemainingEv
libopenzwave.so.1.6:_ZN9OpenZWave13TimeStampImpl7SetTimeEi
libopenzwave.so.1.6:_ZN9OpenZWave13TimeStampImplC1Ev
libopenzwave.so.1.6:_ZN9OpenZWave13TimeStampImplC2Ev
libopenzwave.so.1.6:_ZN9OpenZWave13TimeStampImplD1Ev
libopenzwave.so.1.6:_ZN9OpenZWave13TimeStampImplD2Ev
libopenzwave.so.1.6:_ZN9OpenZWave13TimeStampImplmiERKS0_
libopenzwave.so.1.6:_ZN9OpenZWave13ValueSchedule14SetSwitchPointEhha
libopenzwave.so.1.6:_ZN9OpenZWave13ValueSchedule16OnValueRefreshedEv
libopenzwave.so.1.6:_ZN9OpenZWave13ValueSchedule17RemoveSwitchPointEh
libopenzwave.so.1.6:_ZN9OpenZWave13ValueSchedule3SetEv
libopenzwave.so.1.6:_ZN9OpenZWave13ValueSchedule7ReadXMLEjhhPK12TiXmlElement
libopenzwave.so.1.6:_ZN9OpenZWave13ValueSchedule8WriteXMLEP12TiXmlElement
libopenzwave.so.1.6:_ZN9OpenZWave13ValueScheduleC1EjhNS_7ValueID10ValueGenreEhhtRKNSt7__cxx1112basic_stringIcSt11char_traitsIcESaIcEEESA_bbh
libopenzwave.so.1.6:_ZN9OpenZWave13ValueScheduleC1Ev
libopenzwave.so.1.6:_ZN9OpenZWave13ValueScheduleC2EjhNS_7ValueID10ValueGenreEhhtRKNSt7__cxx1112basic_stringIcSt11char_traitsIcESaIcEEESA_bbh
libopenzwave.so.1.6:_ZN9OpenZWave13ValueScheduleC2Ev
libopenzwave.so.1.6:_ZN9OpenZWave13ZWavePlusInfo10CreateVarsEh
libopenzwave.so.1.6:_ZN9OpenZWave13ZWavePlusInfo12RequestStateEjhNS_6Driver8MsgQueueE
libopenzwave.so.1.6:_ZN9OpenZWave13ZWavePlusInfo12RequestValueEjthNS_6Driver8MsgQueueE
libopenzwave.so.1.6:_ZN9OpenZWave13ZWavePlusInfo6CreateEjh
libopenzwave.so.1.6:_ZN9OpenZWave13ZWavePlusInfo9HandleMsgEPKhjj
libopenzwave.so.1.6:_ZN9OpenZWave13ZWavePlusInfoC1Ejh
libopenzwave.so.1.6:_ZN9OpenZWave13ZWavePlusInfoC2Ejh
libopenzwave.so.1.6:_ZN9OpenZWave14CommandClasses11IsSupportedEh
libopenzwave.so.1.6:_ZN9OpenZWave14CommandClasses17GetCommandClassIdERKNSt7__cxx1112basic_stringIcSt11char_traitsIcESaIcEEE
libopenzwave.so.1.6:_ZN9OpenZWave14CommandClasses18CreateCommandClassEhjh
libopenzwave.so.1.6:_ZN9OpenZWave14CommandClasses22RegisterCommandClassesEv
libopenzwave.so.1.6:_ZN9OpenZWave14CommandClasses23ParseCommandClassOptionERKNSt7__cxx1112basic_stringIcSt11char_traitsIcESaIcEEEb
libopenzwave.so.1.6:_ZN9OpenZWave14CommandClasses27GetAdvertisedCommandClassesB5cxx11Ev
libopenzwave.so.1.6:_ZN9OpenZWave14CommandClasses7GetNameB5cxx11Eh
libopenzwave.so.1.6:_ZN9OpenZWave14CommandClasses8RegisterEhRKNSt7__cxx1112basic_stringIcSt11char_traitsIcESaIcEEEPFPNS_12CommandClassEjhEb
libopenzwave.so.1.6:_ZN9OpenZWave14CommandClassesC1Ev
libopenzwave.so.1.6:_ZN9OpenZWave14CommandClassesC2Ev
libopenzwave.so.1.6:_ZN9OpenZWave14ThermostatMode10CreateVarsEh
libopenzwave.so.1.6:_ZN9OpenZWave14ThermostatMode12RequestStateEjhNS_6Driver8MsgQueueE
libopenzwave.so.1.6:_ZN9OpenZWave14ThermostatMode12RequestValueEjthNS_6Driver8MsgQueueE
libopenzwave.so.1.6:_ZN9OpenZWave14ThermostatMode6CreateEjh
libopenzwave.so.1.6:_ZN9OpenZWave14ThermostatMode7ReadXMLEPK12TiXmlElement
libopenzwave.so.1.6:_ZN9OpenZWave14ThermostatMode8SetValueERKNS_5ValueE
libopenzwave.so.1.6:_ZN9OpenZWave14ThermostatMode8WriteXMLEP12TiXmlElement
libopenzwave.so.1.6:_ZN9OpenZWave14ThermostatMode9HandleMsgEPKhjj
libopenzwave.so.1.6:_ZN9OpenZWave14TimeParameters10CreateVarsEh
libopenzwave.so.1.6:_ZN9OpenZWave14TimeParameters12RequestStateEjhNS_6Driver8MsgQueueE
libopenzwave.so.1.6:_ZN9OpenZWave14TimeParameters12RequestValueEjthNS_6Driver8MsgQueueE
libopenzwave.so.1.6:_ZN9OpenZWave14TimeParameters6CreateEjh
libopenzwave.so.1.6:_ZN9OpenZWave14TimeParameters8SetValueERKNS_5ValueE
libopenzwave.so.1.6:_ZN9OpenZWave14TimeParameters9HandleMsgEPKhjj
libopenzwave.so.1.6:_ZN9OpenZWave14TimeParametersC1Ejh
libopenzwave.so.1.6:_ZN9OpenZWave14TimeParametersC2Ejh
libopenzwave.so.1.6:_ZN9OpenZWave14rssi_to_stringEh
libopenzwave.so.1.6:_ZN9OpenZWave15BarrierOperator10CreateVarsEh
libopenzwave.so.1.6:_ZN9OpenZWave15BarrierOperator12RequestStateEjhNS_6Driver8MsgQueueE
libopenzwave.so.1.6:_ZN9OpenZWave15BarrierOperator12RequestValueEjthNS_6Driver8MsgQueueE
libopenzwave.so.1.6:_ZN9OpenZWave15BarrierOperator6CreateEjh
libopenzwave.so.1.6:_ZN9OpenZWave15BarrierOperator8SetValueERKNS_5ValueE
libopenzwave.so.1.6:_ZN9OpenZWave15BarrierOperator9HandleMsgEPKhjj
libopenzwave.so.1.6:_ZN9OpenZWave15BarrierOperatorC1Ejh
libopenzwave.so.1.6:_ZN9OpenZWave15BarrierOperatorC2Ejh
libopenzwave.so.1.6:_ZN9OpenZWave15DoorLockLogging10CreateVarsEh
libopenzwave.so.1.6:_ZN9OpenZWave15DoorLockLogging12RequestStateEjhNS_6Driver8MsgQueueE
libopenzwave.so.1.6:_ZN9OpenZWave15DoorLockLogging12RequestValueEjthNS_6Driver8MsgQueueE
libopenzwave.so.1.6:_ZN9OpenZWave15DoorLockLogging6CreateEjh
libopenzwave.so.1.6:_ZN9OpenZWave15DoorLockLogging8SetValueERKNS_5ValueE
libopenzwave.so.1.6:_ZN9OpenZWave15DoorLockLogging9HandleMsgEPKhjj
libopenzwave.so.1.6:_ZN9OpenZWave15DoorLockLoggingC1Ejh
libopenzwave.so.1.6:_ZN9OpenZWave15DoorLockLoggingC2Ejh
libopenzwave.so.1.6:_ZN9OpenZWave15SceneActivation10ClearSceneEj
libopenzwave.so.1.6:_ZN9OpenZWave15SceneActivation10CreateVarsEh
libopenzwave.so.1.6:_ZN9OpenZWave15SceneActivation18HandleIncommingMsgEPKhjj
libopenzwave.so.1.6:_ZN9OpenZWave15SceneActivation6CreateEjh
libopenzwave.so.1.6:_ZN9OpenZWave15SceneActivation9HandleMsgEPKhjj
libopenzwave.so.1.6:_ZN9OpenZWave15SceneActivationC1Ejh
libopenzwave.so.1.6:_ZN9OpenZWave15SceneActivationC2Ejh
libopenzwave.so.1.6:_ZN9OpenZWave16EnergyProduction10CreateVarsEh
libopenzwave.so.1.6:_ZN9OpenZWave16EnergyProduction12RequestStateEjhNS_6Driver8MsgQueueE
libopenzwave.so.1.6:_ZN9OpenZWave16EnergyProduction12RequestValueEjthNS_6Driver8MsgQueueE
libopenzwave.so.1.6:_ZN9OpenZWave16EnergyProduction6CreateEjh
libopenzwave.so.1.6:_ZN9OpenZWave16EnergyProduction9HandleMsgEPKhjj
libopenzwave.so.1.6:_ZN9OpenZWave16SensorMultilevel10CreateVarsEh
libopenzwave.so.1.6:_ZN9OpenZWave16SensorMultilevel12RequestStateEjhNS_6Driver8MsgQueueE
libopenzwave.so.1.6:_ZN9OpenZWave16SensorMultilevel12RequestValueEjthNS_6Driver8MsgQueueE
libopenzwave.so.1.6:_ZN9OpenZWave16SensorMultilevel6CreateEjh
libopenzwave.so.1.6:_ZN9OpenZWave16SensorMultilevel9HandleMsgEPKhjj
libopenzwave.so.1.6:_ZN9OpenZWave16SerialController11SetStopBitsENS0_8StopBitsE
libopenzwave.so.1.6:_ZN9OpenZWave16SerialController4OpenERKNSt7__cxx1112basic_stringIcSt11char_traitsIcESaIcEEE
libopenzwave.so.1.6:_ZN9OpenZWave16SerialController5CloseEv
libopenzwave.so.1.6:_ZN9OpenZWave16SerialController5WriteEPhj
libopenzwave.so.1.6:_ZN9OpenZWave16SerialController7SetBaudEj
libopenzwave.so.1.6:_ZN9OpenZWave16SerialController9SetParityENS0_6ParityE
libopenzwave.so.1.6:_ZN9OpenZWave16SerialControllerC1Ev
libopenzwave.so.1.6:_ZN9OpenZWave16SerialControllerC2Ev
libopenzwave.so.1.6:_ZN9OpenZWave16SerialControllerD0Ev
libopenzwave.so.1.6:_ZN9OpenZWave16SerialControllerD1Ev
libopenzwave.so.1.6:_ZN9OpenZWave16SerialControllerD2Ev
libopenzwave.so.1.6:_ZN9OpenZWave16SimpleHTTPClient10HttpSocket11SendRequestENSt7__cxx1112basic_stringIcSt11char_traitsIcESaIcEEEPKcPv
libopenzwave.so.1.6:_ZN9OpenZWave16SimpleHTTPClient10HttpSocket11SendRequestERNS0_7RequestEb
libopenzwave.so.1.6:_ZN9OpenZWave16SimpleHTTPClient10HttpSocket12QueueRequestENSt7__cxx1112basic_stringIcSt11char_traitsIcESaIcEEEPKcPv
libopenzwave.so.1.6:_ZN9OpenZWave16SimpleHTTPClient10HttpSocket12_DequeueMoreEv
libopenzwave.so.1.6:_ZN9OpenZWave16SimpleHTTPClient10HttpSocket12_OpenRequestERKNS0_7RequestE
libopenzwave.so.1.6:_ZN9OpenZWave16SimpleHTTPClient10HttpSocket12_ParseHeaderEv
libopenzwave.so.1.6:_ZN9OpenZWave16SimpleHTTPClient10HttpSocket13_HandleStatusEv
libopenzwave.so.1.6:_ZN9OpenZWave16SimpleHTTPClient10HttpSocket13_ProcessChunkEv
libopenzwave.so.1.6:_ZN9OpenZWave16SimpleHTTPClient10HttpSocket14_EnqueueOrSendERKNS0_7RequestEb
libopenzwave.so.1.6:_ZN9OpenZWave16SimpleHTTPClient10HttpSocket14_FinishRequestEv
libopenzwave.so.1.6:_ZN9OpenZWave16SimpleHTTPClient10HttpSocket15_OnRecvInternalEPvj
libopenzwave.so.1.6:_ZN9OpenZWave16SimpleHTTPClient10HttpSocket16_OnCloseInternalEv
libopenzwave.so.1.6:_ZN9OpenZWave16SimpleHTTPClient10HttpSocket18_ParseHeaderFieldsEPKcm
libopenzwave.so.1.6:_ZN9OpenZWave16SimpleHTTPClient10HttpSocket7_OnDataEv
libopenzwave.so.1.6:_ZN9OpenZWave16SimpleHTTPClient10HttpSocket7_OnOpenEv
libopenzwave.so.1.6:_ZN9OpenZWave16SimpleHTTPClient10HttpSocket7_OnRecvEPvj
libopenzwave.so.1.6:_ZN9OpenZWave16SimpleHTTPClient10HttpSocket8DownloadERKNSt7__cxx1112basic_stringIcSt11char_traitsIcESaIcEEEPKcPvPKNS0_4POSTE
libopenzwave.so.1.6:_ZN9OpenZWave16SimpleHTTPClient10HttpSocket8_OnCloseEv
libopenzwave.so.1.6:_ZN9OpenZWave16SimpleHTTPClient10HttpSocket9_OnUpdateEv
libopenzwave.so.1.6:_ZN9OpenZWave16SimpleHTTPClient10HttpSocket9_RedirectENSt7__cxx1112basic_stringIcSt11char_traitsIcESaIcEEEb
libopenzwave.so.1.6:_ZN9OpenZWave16SimpleHTTPClient10HttpSocketC1Ev
libopenzwave.so.1.6:_ZN9OpenZWave16SimpleHTTPClient10HttpSocketC2Ev
libopenzwave.so.1.6:_ZN9OpenZWave16SimpleHTTPClient10HttpSocketD0Ev
libopenzwave.so.1.6:_ZN9OpenZWave16SimpleHTTPClient10HttpSocketD1Ev
libopenzwave.so.1.6:_ZN9OpenZWave16SimpleHTTPClient10HttpSocketD2Ev
libopenzwave.so.1.6:_ZN9OpenZWave16SimpleHTTPClient11InitNetworkEv
libopenzwave.so.1.6:_ZN9OpenZWave16SimpleHTTPClient11StopNetworkEv
libopenzwave.so.1.6:_ZN9OpenZWave16SimpleHTTPClient4POST3addEPKcS3_
libopenzwave.so.1.6:_ZN9OpenZWave16SimpleHTTPClient6HasSSLEv
libopenzwave.so.1.6:_ZN9OpenZWave16SimpleHTTPClient8SplitURIERKNSt7__cxx1112basic_stringIcSt11char_traitsIcESaIcEEERS6_S9_S9_RiRb
libopenzwave.so.1.6:_ZN9OpenZWave16SimpleHTTPClient9SocketSet3addEPNS0_9TcpSocketEb
libopenzwave.so.1.6:_ZN9OpenZWave16SimpleHTTPClient9SocketSet6removeEPNS0_9TcpSocketE
libopenzwave.so.1.6:_ZN9OpenZWave16SimpleHTTPClient9SocketSet6updateEv
libopenzwave.so.1.6:_ZN9OpenZWave16SimpleHTTPClient9SocketSet9deleteAllEv
libopenzwave.so.1.6:_ZN9OpenZWave16SimpleHTTPClient9SocketSetD0Ev
libopenzwave.so.1.6:_ZN9OpenZWave16SimpleHTTPClient9SocketSetD1Ev
libopenzwave.so.1.6:_ZN9OpenZWave16SimpleHTTPClient9SocketSetD2Ev
libopenzwave.so.1.6:_ZN9OpenZWave16SimpleHTTPClient9TcpSocket10_readBytesEPhm
libopenzwave.so.1.6:_ZN9OpenZWave16SimpleHTTPClient9TcpSocket11_writeBytesEPKhm
libopenzwave.so.1.6:_ZN9OpenZWave16SimpleHTTPClient9TcpSocket11shutdownSSLEv
libopenzwave.so.1.6:_ZN9OpenZWave16SimpleHTTPClient9TcpSocket12SetBufsizeInEj
libopenzwave.so.1.6:_ZN9OpenZWave16SimpleHTTPClient9TcpSocket12_ShiftBufferEv
libopenzwave.so.1.6:_ZN9OpenZWave16SimpleHTTPClient9TcpSocket14SetNonBlockingEb
libopenzwave.so.1.6:_ZN9OpenZWave16SimpleHTTPClient9TcpSocket16_OnCloseInternalEv
libopenzwave.so.1.6:_ZN9OpenZWave16SimpleHTTPClient9TcpSocket4openEPKcj
libopenzwave.so.1.6:_ZN9OpenZWave16SimpleHTTPClient9TcpSocket5closeEv
libopenzwave.so.1.6:_ZN9OpenZWave16SimpleHTTPClient9TcpSocket6isOpenEv
libopenzwave.so.1.6:_ZN9OpenZWave16SimpleHTTPClient9TcpSocket6updateEv
libopenzwave.so.1.6:_ZN9OpenZWave16SimpleHTTPClient9TcpSocket7_OnDataEv
libopenzwave.so.1.6:_ZN9OpenZWave16SimpleHTTPClient9TcpSocket7initSSLEPKc
libopenzwave.so.1.6:_ZN9OpenZWave16SimpleHTTPClient9TcpSocket9SendBytesEPKvj
libopenzwave.so.1.6:_ZN9OpenZWave16SimpleHTTPClient9TcpSocket9verifySSLEv
libopenzwave.so.1.6:_ZN9OpenZWave16SimpleHTTPClient9TcpSocketC1Ev
libopenzwave.so.1.6:_ZN9OpenZWave16SimpleHTTPClient9TcpSocketC2Ev
libopenzwave.so.1.6:_ZN9OpenZWave16SimpleHTTPClient9TcpSocketD0Ev
libopenzwave.so.1.6:_ZN9OpenZWave16SimpleHTTPClient9TcpSocketD1Ev
libopenzwave.so.1.6:_ZN9OpenZWave16SimpleHTTPClient9TcpSocketD2Ev
libopenzwave.so.1.6:_ZN9OpenZWave16SimpleHTTPClient9URLEncodeERKNSt7__cxx1112basic_stringIcSt11char_traitsIcESaIcEEERS6_
libopenzwave.so.1.6:_ZN9OpenZWave16SwitchMultilevel10CreateVarsEh
libopenzwave.so.1.6:_ZN9OpenZWave16SwitchMultilevel10SetVersionEh
libopenzwave.so.1.6:_ZN9OpenZWave16SwitchMultilevel12RequestStateEjhNS_6Driver8MsgQueueE
libopenzwave.so.1.6:_ZN9OpenZWave16SwitchMultilevel12RequestValueEjthNS_6Driver8MsgQueueE
libopenzwave.so.1.6:_ZN9OpenZWave16SwitchMultilevel13SetValueBasicEhh
libopenzwave.so.1.6:_ZN9OpenZWave16SwitchMultilevel15StopLevelChangeEh
libopenzwave.so.1.6:_ZN9OpenZWave16SwitchMultilevel16StartLevelChangeEhNS0_25SwitchMultilevelDirectionE
libopenzwave.so.1.6:_ZN9OpenZWave16SwitchMultilevel17HandleIncomingMsgEPKhjj
libopenzwave.so.1.6:_ZN9OpenZWave16SwitchMultilevel6CreateEjh
libopenzwave.so.1.6:_ZN9OpenZWave16SwitchMultilevel8SetLevelEhh
libopenzwave.so.1.6:_ZN9OpenZWave16SwitchMultilevel8SetValueERKNS_5ValueE
libopenzwave.so.1.6:_ZN9OpenZWave16SwitchMultilevel9HandleMsgEPKhjj
libopenzwave.so.1.6:_ZN9OpenZWave17ApplicationStatus6CreateEjh
libopenzwave.so.1.6:_ZN9OpenZWave17ApplicationStatus9HandleMsgEPKhjj
libopenzwave.so.1.6:_ZN9OpenZWave17ThermostatFanMode10CreateVarsEh
libopenzwave.so.1.6:_ZN9OpenZWave17ThermostatFanMode12RequestStateEjhNS_6Driver8MsgQueueE
libopenzwave.so.1.6:_ZN9OpenZWave17ThermostatFanMode12RequestValueEjthNS_6Driver8MsgQueueE
libopenzwave.so.1.6:_ZN9OpenZWave17ThermostatFanMode6CreateEjh
libopenzwave.so.1.6:_ZN9OpenZWave17ThermostatFanMode7ReadXMLEPK12TiXmlElement
libopenzwave.so.1.6:_ZN9OpenZWave17ThermostatFanMode8SetValueERKNS_5ValueE
libopenzwave.so.1.6:_ZN9OpenZWave17ThermostatFanMode8WriteXMLEP12TiXmlElement
libopenzwave.so.1.6:_ZN9OpenZWave17ThermostatFanMode9HandleMsgEPKhjj
libopenzwave.so.1.6:_ZN9OpenZWave18ConvertUFT16ToUTF8EtPcj
libopenzwave.so.1.6:_ZN9OpenZWave18DeviceResetLocally6CreateEjh
libopenzwave.so.1.6:_ZN9OpenZWave18DeviceResetLocally9HandleMsgEPKhjj
libopenzwave.so.1.6:_ZN9OpenZWave18SwitchToggleBinary10CreateVarsEh
libopenzwave.so.1.6:_ZN9OpenZWave18SwitchToggleBinary12RequestStateEjhNS_6Driver8MsgQueueE
libopenzwave.so.1.6:_ZN9OpenZWave18SwitchToggleBinary12RequestValueEjthNS_6Driver8MsgQueueE
libopenzwave.so.1.6:_ZN9OpenZWave18SwitchToggleBinary6CreateEjh
libopenzwave.so.1.6:_ZN9OpenZWave18SwitchToggleBinary8SetValueERKNS_5ValueE
libopenzwave.so.1.6:_ZN9OpenZWave18SwitchToggleBinary9HandleMsgEPKhjj
libopenzwave.so.1.6:_ZN9OpenZWave18ThermostatFanState10CreateVarsEh
libopenzwave.so.1.6:_ZN9OpenZWave18ThermostatFanState12RequestStateEjhNS_6Driver8MsgQueueE
libopenzwave.so.1.6:_ZN9OpenZWave18ThermostatFanState12RequestValueEjthNS_6Driver8MsgQueueE
libopenzwave.so.1.6:_ZN9OpenZWave18ThermostatFanState6CreateEjh
libopenzwave.so.1.6:_ZN9OpenZWave18ThermostatFanState9HandleMsgEPKhjj
libopenzwave.so.1.6:_ZN9OpenZWave18ThermostatSetpoint10CreateVarsEhh
libopenzwave.so.1.6:_ZN9OpenZWave18ThermostatSetpoint12RequestStateEjhNS_6Driver8MsgQueueE
libopenzwave.so.1.6:_ZN9OpenZWave18ThermostatSetpoint12RequestValueEjthNS_6Driver8MsgQueueE
libopenzwave.so.1.6:_ZN9OpenZWave18ThermostatSetpoint6CreateEjh
libopenzwave.so.1.6:_ZN9OpenZWave18ThermostatSetpoint8SetValueERKNS_5ValueE
libopenzwave.so.1.6:_ZN9OpenZWave18ThermostatSetpoint9HandleMsgEPKhjj
libopenzwave.so.1.6:_ZN9OpenZWave18ThermostatSetpointC1Ejh
libopenzwave.so.1.6:_ZN9OpenZWave18ThermostatSetpointC2Ejh
libopenzwave.so.1.6:_ZN9OpenZWave19BasicWindowCovering10CreateVarsEh
libopenzwave.so.1.6:_ZN9OpenZWave19BasicWindowCovering6CreateEjh
libopenzwave.so.1.6:_ZN9OpenZWave19BasicWindowCovering8SetValueERKNS_5ValueE
libopenzwave.so.1.6:_ZN9OpenZWave19CompatOptionManager10EnableFlagENS_17CompatOptionFlagsEj
libopenzwave.so.1.6:_ZN9OpenZWave19CompatOptionManager10SetFlagIntENS_17CompatOptionFlagsEj
libopenzwave.so.1.6:_ZN9OpenZWave19CompatOptionManager11SetFlagBoolENS_17CompatOptionFlagsEb
libopenzwave.so.1.6:_ZN9OpenZWave19CompatOptionManager11SetFlagByteENS_17CompatOptionFlagsEh
libopenzwave.so.1.6:_ZN9OpenZWave19CompatOptionManager12SetFlagShortENS_17CompatOptionFlagsEt
libopenzwave.so.1.6:_ZN9OpenZWave19CompatOptionManager13GetXMLTagNameB5cxx11Ev
libopenzwave.so.1.6:_ZN9OpenZWave19CompatOptionManager7ReadXMLEPK12TiXmlElement
libopenzwave.so.1.6:_ZN9OpenZWave19CompatOptionManager8WriteXMLEP12TiXmlElement
libopenzwave.so.1.6:_ZN9OpenZWave19CompatOptionManagerC1ENS_16CompatOptionTypeEPNS_12CommandClassE
libopenzwave.so.1.6:_ZN9OpenZWave19CompatOptionManagerC2ENS_16CompatOptionTypeEPNS_12CommandClassE
libopenzwave.so.1.6:_ZN9OpenZWave19CompatOptionManagerD0Ev
libopenzwave.so.1.6:_ZN9OpenZWave19CompatOptionManagerD1Ev
libopenzwave.so.1.6:_ZN9OpenZWave19CompatOptionManagerD2Ev
libopenzwave.so.1.6:_ZN9OpenZWave19NotificationCCTypes12GetAlarmTypeB5cxx11Ej
libopenzwave.so.1.6:_ZN9OpenZWave19NotificationCCTypes18GetEventParamNamesB5cxx11ENS0_27NotificationEventParamTypesE
libopenzwave.so.1.6:_ZN9OpenZWave19NotificationCCTypes20GetEventForAlarmTypeB5cxx11Ejj
libopenzwave.so.1.6:_ZN9OpenZWave19NotificationCCTypes25GetAlarmNotificationTypesEj
libopenzwave.so.1.6:_ZN9OpenZWave19NotificationCCTypes26GetAlarmNotificationEventsEjj
libopenzwave.so.1.6:_ZN9OpenZWave19NotificationCCTypes31GetAlarmNotificationEventParamsEjj
libopenzwave.so.1.6:_ZN9OpenZWave19NotificationCCTypes3GetEv
libopenzwave.so.1.6:_ZN9OpenZWave19NotificationCCTypes6CreateEv
libopenzwave.so.1.6:_ZN9OpenZWave19NotificationCCTypes7ReadXMLEv
libopenzwave.so.1.6:_ZN9OpenZWave19NotificationCCTypesC1Ev
libopenzwave.so.1.6:_ZN9OpenZWave19NotificationCCTypesC2Ev
libopenzwave.so.1.6:_ZN9OpenZWave19SimpleAVCommandItem10GetVersionEv
libopenzwave.so.1.6:_ZN9OpenZWave19SimpleAVCommandItem11GetCommandsEv
libopenzwave.so.1.6:_ZN9OpenZWave19SimpleAVCommandItem14GetDescriptionB5cxx11Ev
libopenzwave.so.1.6:_ZN9OpenZWave19SimpleAVCommandItem7GetCodeEv
libopenzwave.so.1.6:_ZN9OpenZWave19SimpleAVCommandItem7GetNameB5cxx11Ev
libopenzwave.so.1.6:_ZN9OpenZWave19SimpleAVCommandItemC1EtNSt7__cxx1112basic_stringIcSt11char_traitsIcESaIcEEES6_t
libopenzwave.so.1.6:_ZN9OpenZWave19SimpleAVCommandItemC2EtNSt7__cxx1112basic_stringIcSt11char_traitsIcESaIcEEES6_t
libopenzwave.so.1.6:_ZN9OpenZWave20ManufacturerSpecific10CreateVarsEh
libopenzwave.so.1.6:_ZN9OpenZWave20ManufacturerSpecific12RequestStateEjhNS_6Driver8MsgQueueE
libopenzwave.so.1.6:_ZN9OpenZWave20ManufacturerSpecific12RequestValueEjthNS_6Driver8MsgQueueE
libopenzwave.so.1.6:_ZN9OpenZWave20ManufacturerSpecific13LoadConfigXMLEv
libopenzwave.so.1.6:_ZN9OpenZWave20ManufacturerSpecific15ReLoadConfigXMLEv
libopenzwave.so.1.6:_ZN9OpenZWave20ManufacturerSpecific17SetProductDetailsEttt
libopenzwave.so.1.6:_ZN9OpenZWave20ManufacturerSpecific21setFileConfigRevisionEj
libopenzwave.so.1.6:_ZN9OpenZWave20ManufacturerSpecific23setLatestConfigRevisionEj
libopenzwave.so.1.6:_ZN9OpenZWave20ManufacturerSpecific23setLoadedConfigRevisionEj
libopenzwave.so.1.6:_ZN9OpenZWave20ManufacturerSpecific6CreateEjh
libopenzwave.so.1.6:_ZN9OpenZWave20ManufacturerSpecific9HandleMsgEPKhjj
libopenzwave.so.1.6:_ZN9OpenZWave20ManufacturerSpecificC1Ejh
libopenzwave.so.1.6:_ZN9OpenZWave20ManufacturerSpecificC2Ejh
libopenzwave.so.1.6:_ZN9OpenZWave20SerialControllerImpl14ReadThreadProcEPNS_5EventE
libopenzwave.so.1.6:_ZN9OpenZWave20SerialControllerImpl26SerialReadThreadEntryPointEPNS_5EventEPv
libopenzwave.so.1.6:_ZN9OpenZWave20SerialControllerImpl4InitEj
libopenzwave.so.1.6:_ZN9OpenZWave20SerialControllerImpl4OpenEv
libopenzwave.so.1.6:_ZN9OpenZWave20SerialControllerImpl4ReadEPNS_5EventE
libopenzwave.so.1.6:_ZN9OpenZWave20SerialControllerImpl5CloseEv
libopenzwave.so.1.6:_ZN9OpenZWave20SerialControllerImpl5WriteEPhj
libopenzwave.so.1.6:_ZN9OpenZWave20SerialControllerImplC1EPNS_16SerialControllerE
libopenzwave.so.1.6:_ZN9OpenZWave20SerialControllerImplC2EPNS_16SerialControllerE
libopenzwave.so.1.6:_ZN9OpenZWave20SerialControllerImplD1Ev
libopenzwave.so.1.6:_ZN9OpenZWave20SerialControllerImplD2Ev
libopenzwave.so.1.6:_ZN9OpenZWave21ControllerReplication10CreateVarsEh
libopenzwave.so.1.6:_ZN9OpenZWave21ControllerReplication12SendNextDataEv
libopenzwave.so.1.6:_ZN9OpenZWave21ControllerReplication16StartReplicationEh
libopenzwave.so.1.6:_ZN9OpenZWave21ControllerReplication6CreateEjh
libopenzwave.so.1.6:_ZN9OpenZWave21ControllerReplication8SetValueERKNS_5ValueE
libopenzwave.so.1.6:_ZN9OpenZWave21ControllerReplication9HandleMsgEPKhjj
libopenzwave.so.1.6:_ZN9OpenZWave21ControllerReplicationC1Ejh
libopenzwave.so.1.6:_ZN9OpenZWave21ControllerReplicationC2Ejh
libopenzwave.so.1.6:_ZN9OpenZWave22ClimateControlSchedule10CreateVarsEh
libopenzwave.so.1.6:_ZN9OpenZWave22ClimateControlSchedule12RequestStateEjhNS_6Driver8MsgQueueE
libopenzwave.so.1.6:_ZN9OpenZWave22ClimateControlSchedule12RequestValueEjthNS_6Driver8MsgQueueE
libopenzwave.so.1.6:_ZN9OpenZWave22ClimateControlSchedule6CreateEjh
libopenzwave.so.1.6:_ZN9OpenZWave22ClimateControlSchedule8SetValueERKNS_5ValueE
libopenzwave.so.1.6:_ZN9OpenZWave22ClimateControlSchedule9HandleMsgEPKhjj
libopenzwave.so.1.6:_ZN9OpenZWave22ClimateControlScheduleC1Ejh
libopenzwave.so.1.6:_ZN9OpenZWave22ClimateControlScheduleC2Ejh
libopenzwave.so.1.6:_ZN9OpenZWave22GenerateAuthenticationEPKhjPNS_6DriverEhhPhS4_
libopenzwave.so.1.6:_ZN9OpenZWave22LabelLocalizationEntry6GetIdxEv
libopenzwave.so.1.6:_ZN9OpenZWave22LabelLocalizationEntry8AddLabelENSt7__cxx1112basic_stringIcSt11char_traitsIcESaIcEEES6_
libopenzwave.so.1.6:_ZN9OpenZWave22LabelLocalizationEntry8GetLabelENSt7__cxx1112basic_stringIcSt11char_traitsIcESaIcEEE
libopenzwave.so.1.6:_ZN9OpenZWave22LabelLocalizationEntry8HasLabelENSt7__cxx1112basic_stringIcSt11char_traitsIcESaIcEEE
libopenzwave.so.1.6:_ZN9OpenZWave22LabelLocalizationEntryC1Etj
libopenzwave.so.1.6:_ZN9OpenZWave22LabelLocalizationEntryC2Etj
libopenzwave.so.1.6:_ZN9OpenZWave22ManufacturerSpecificDB10getProductEttt
libopenzwave.so.1.6:_ZN9OpenZWave22ManufacturerSpecificDB14LoadProductXMLEv
libopenzwave.so.1.6:_ZN9OpenZWave22ManufacturerSpecificDB16UnloadProductXMLEv
libopenzwave.so.1.6:_ZN9OpenZWave22ManufacturerSpecificDB16checkConfigFilesEPNS_6DriverE
libopenzwave.so.1.6:_ZN9OpenZWave22ManufacturerSpecificDB16checkInitializedEv
libopenzwave.so.1.6:_ZN9OpenZWave22ManufacturerSpecificDB16configDownloadedEPNS_6DriverENSt7__cxx1112basic_stringIcSt11char_traitsIcESaIcEEEhb
libopenzwave.so.1.6:_ZN9OpenZWave22ManufacturerSpecificDB16updateConfigFileEPNS_6DriverEPNS_4NodeE
libopenzwave.so.1.6:_ZN9OpenZWave22ManufacturerSpecificDB19mfsConfigDownloadedEPNS_6DriverENSt7__cxx1112basic_stringIcSt11char_traitsIcESaIcEEEb
libopenzwave.so.1.6:_ZN9OpenZWave22ManufacturerSpecificDB19updateMFSConfigFileEPNS_6DriverE
libopenzwave.so.1.6:_ZN9OpenZWave22ManufacturerSpecificDB22LoadConfigFileRevisionEPNS_17ProductDescriptorE
libopenzwave.so.1.6:_ZN9OpenZWave22ManufacturerSpecificDB6CreateEv
libopenzwave.so.1.6:_ZN9OpenZWave22ManufacturerSpecificDB7DestroyEv
libopenzwave.so.1.6:_ZN9OpenZWave22ManufacturerSpecificDB7isReadyEv
libopenzwave.so.1.6:_ZN9OpenZWave22ManufacturerSpecificDBC1Ev
libopenzwave.so.1.6:_ZN9OpenZWave22ManufacturerSpecificDBC2Ev
libopenzwave.so.1.6:_ZN9OpenZWave22ManufacturerSpecificDBD1Ev
libopenzwave.so.1.6:_ZN9OpenZWave22ManufacturerSpecificDBD2Ev
libopenzwave.so.1.6:_ZN9OpenZWave22SwitchToggleMultilevel10CreateVarsEh
libopenzwave.so.1.6:_ZN9OpenZWave22SwitchToggleMultilevel12RequestStateEjhNS_6Driver8MsgQueueE
libopenzwave.so.1.6:_ZN9OpenZWave22SwitchToggleMultilevel12RequestValueEjthNS_6Driver8MsgQueueE
libopenzwave.so.1.6:_ZN9OpenZWave22SwitchToggleMultilevel15StopLevelChangeEv
libopenzwave.so.1.6:_ZN9OpenZWave22SwitchToggleMultilevel16StartLevelChangeENS0_31SwitchToggleMultilevelDirectionEbb
libopenzwave.so.1.6:_ZN9OpenZWave22SwitchToggleMultilevel6CreateEjh
libopenzwave.so.1.6:_ZN9OpenZWave22SwitchToggleMultilevel8SetValueERKNS_5ValueE
libopenzwave.so.1.6:_ZN9OpenZWave22SwitchToggleMultilevel9HandleMsgEPKhjj
libopenzwave.so.1.6:_ZN9OpenZWave22ValueLocalizationEntry11AddItemHelpENSt7__cxx1112basic_stringIcSt11char_traitsIcESaIcEEEiS6_
libopenzwave.so.1.6:_ZN9OpenZWave22ValueLocalizationEntry11GetItemHelpENSt7__cxx1112basic_stringIcSt11char_traitsIcESaIcEEEi
libopenzwave.so.1.6:_ZN9OpenZWave22ValueLocalizationEntry11HasItemHelpEiNSt7__cxx1112basic_stringIcSt11char_traitsIcESaIcEEE
libopenzwave.so.1.6:_ZN9OpenZWave22ValueLocalizationEntry12AddItemLabelENSt7__cxx1112basic_stringIcSt11char_traitsIcESaIcEEEiS6_
libopenzwave.so.1.6:_ZN9OpenZWave22ValueLocalizationEntry12GetItemLabelENSt7__cxx1112basic_stringIcSt11char_traitsIcESaIcEEEi
libopenzwave.so.1.6:_ZN9OpenZWave22ValueLocalizationEntry12HasItemLabelEiNSt7__cxx1112basic_stringIcSt11char_traitsIcESaIcEEE
libopenzwave.so.1.6:_ZN9OpenZWave22ValueLocalizationEntry6GetIdxEv
libopenzwave.so.1.6:_ZN9OpenZWave22ValueLocalizationEntry7AddHelpENSt7__cxx1112basic_stringIcSt11char_traitsIcESaIcEEES6_
libopenzwave.so.1.6:_ZN9OpenZWave22ValueLocalizationEntry7GetHelpENSt7__cxx1112basic_stringIcSt11char_traitsIcESaIcEEE
libopenzwave.so.1.6:_ZN9OpenZWave22ValueLocalizationEntry7HasHelpENSt7__cxx1112basic_stringIcSt11char_traitsIcESaIcEEE
libopenzwave.so.1.6:_ZN9OpenZWave22ValueLocalizationEntry8AddLabelENSt7__cxx1112basic_stringIcSt11char_traitsIcESaIcEEES6_
libopenzwave.so.1.6:_ZN9OpenZWave22ValueLocalizationEntry8GetLabelENSt7__cxx1112basic_stringIcSt11char_traitsIcESaIcEEE
libopenzwave.so.1.6:_ZN9OpenZWave22ValueLocalizationEntry8HasLabelENSt7__cxx1112basic_stringIcSt11char_traitsIcESaIcEEE
libopenzwave.so.1.6:_ZN9OpenZWave22ValueLocalizationEntryC1Ehtj
libopenzwave.so.1.6:_ZN9OpenZWave22ValueLocalizationEntryC2Ehtj
libopenzwave.so.1.6:_ZN9OpenZWave23ManufacturerProprietary12RequestValueEjthNS_6Driver8MsgQueueE
libopenzwave.so.1.6:_ZN9OpenZWave23ManufacturerProprietary6CreateEjh
libopenzwave.so.1.6:_ZN9OpenZWave23ManufacturerProprietary8SetValueERKNS_5ValueE
libopenzwave.so.1.6:_ZN9OpenZWave23ManufacturerProprietary9HandleMsgEPKhjj
libopenzwave.so.1.6:_ZN9OpenZWave23MultiChannelAssociation10QueryGroupEhj
libopenzwave.so.1.6:_ZN9OpenZWave23MultiChannelAssociation12RequestStateEjhNS_6Driver8MsgQueueE
libopenzwave.so.1.6:_ZN9OpenZWave23MultiChannelAssociation12RequestValueEjthNS_6Driver8MsgQueueE
libopenzwave.so.1.6:_ZN9OpenZWave23MultiChannelAssociation16RequestAllGroupsEj
libopenzwave.so.1.6:_ZN9OpenZWave23MultiChannelAssociation3SetEhhh
libopenzwave.so.1.6:_ZN9OpenZWave23MultiChannelAssociation6CreateEjh
libopenzwave.so.1.6:_ZN9OpenZWave23MultiChannelAssociation6RemoveEhhh
libopenzwave.so.1.6:_ZN9OpenZWave23MultiChannelAssociation7ReadXMLEPK12TiXmlElement
libopenzwave.so.1.6:_ZN9OpenZWave23MultiChannelAssociation8WriteXMLEP12TiXmlElement
libopenzwave.so.1.6:_ZN9OpenZWave23MultiChannelAssociation9HandleMsgEPKhjj
libopenzwave.so.1.6:_ZN9OpenZWave23MultiChannelAssociationC1Ejh
libopenzwave.so.1.6:_ZN9OpenZWave23MultiChannelAssociationC2Ejh
libopenzwave.so.1.6:_ZN9OpenZWave24ShouldSecureCommandClassEh
libopenzwave.so.1.6:_ZN9OpenZWave24ThermostatOperatingState10CreateVarsEh
libopenzwave.so.1.6:_ZN9OpenZWave24ThermostatOperatingState12RequestStateEjhNS_6Driver8MsgQueueE
libopenzwave.so.1.6:_ZN9OpenZWave24ThermostatOperatingState12RequestValueEjthNS_6Driver8MsgQueueE
libopenzwave.so.1.6:_ZN9OpenZWave24ThermostatOperatingState6CreateEjh
libopenzwave.so.1.6:_ZN9OpenZWave24ThermostatOperatingState9HandleMsgEPKhjj
libopenzwave.so.1.6:_ZN9OpenZWave26createIVFromPacket_inboundEPKhS1_Ph
libopenzwave.so.1.6:_ZN9OpenZWave31AssociationCommandConfiguration10CreateVarsEh
libopenzwave.so.1.6:_ZN9OpenZWave31AssociationCommandConfiguration10SetCommandEhhhPKh
libopenzwave.so.1.6:_ZN9OpenZWave31AssociationCommandConfiguration12RequestStateEjhNS_6Driver8MsgQueueE
libopenzwave.so.1.6:_ZN9OpenZWave31AssociationCommandConfiguration12RequestValueEjthNS_6Driver8MsgQueueE
libopenzwave.so.1.6:_ZN9OpenZWave31AssociationCommandConfiguration15RequestCommandsEhh
libopenzwave.so.1.6:_ZN9OpenZWave31AssociationCommandConfiguration6CreateEjh
libopenzwave.so.1.6:_ZN9OpenZWave31AssociationCommandConfiguration9HandleMsgEPKhjj
libopenzwave.so.1.6:_ZN9OpenZWave3DNS9LookupTxTENSt7__cxx1112basic_stringIcSt11char_traitsIcESaIcEEERS6_
libopenzwave.so.1.6:_ZN9OpenZWave3DNSC1Ev
libopenzwave.so.1.6:_ZN9OpenZWave3DNSC2Ev
libopenzwave.so.1.6:_ZN9OpenZWave3DNSD1Ev
libopenzwave.so.1.6:_ZN9OpenZWave3DNSD2Ev
libopenzwave.so.1.6:_ZN9OpenZWave3Log10QueueClearEv
libopenzwave.so.1.6:_ZN9OpenZWave3Log14SetLogFileNameERKNSt7__cxx1112basic_stringIcSt11char_traitsIcESaIcEEE
libopenzwave.so.1.6:_ZN9OpenZWave3Log15GetLoggingStateEv
libopenzwave.so.1.6:_ZN9OpenZWave3Log15SetLoggingClassEPNS_9i_LogImplE
libopenzwave.so.1.6:_ZN9OpenZWave3Log15SetLoggingStateENS_8LogLevelES1_S1_
libopenzwave.so.1.6:_ZN9OpenZWave3Log15SetLoggingStateEb
libopenzwave.so.1.6:_ZN9OpenZWave3Log5WriteENS_8LogLevelEPKcz
libopenzwave.so.1.6:_ZN9OpenZWave3Log5WriteENS_8LogLevelEhPKcz
libopenzwave.so.1.6:_ZN9OpenZWave3Log6CreateERKNSt7__cxx1112basic_stringIcSt11char_traitsIcESaIcEEEbbNS_8LogLevelES9_S9_
libopenzwave.so.1.6:_ZN9OpenZWave3Log7DestroyEv
libopenzwave.so.1.6:_ZN9OpenZWave3Log9QueueDumpEv
libopenzwave.so.1.6:_ZN9OpenZWave3LogC1ERKNSt7__cxx1112basic_stringIcSt11char_traitsIcESaIcEEEbbNS_8LogLevelES9_S9_
libopenzwave.so.1.6:_ZN9OpenZWave3LogC2ERKNSt7__cxx1112basic_stringIcSt11char_traitsIcESaIcEEEbbNS_8LogLevelES9_S9_
libopenzwave.so.1.6:_ZN9OpenZWave3LogD1Ev
libopenzwave.so.1.6:_ZN9OpenZWave3LogD2Ev
libopenzwave.so.1.6:_ZN9OpenZWave3Msg10MultiEncapEv
libopenzwave.so.1.6:_ZN9OpenZWave3Msg11AppendArrayEPKhh
libopenzwave.so.1.6:_ZN9OpenZWave3Msg11GetAsStringB5cxx11Ev
libopenzwave.so.1.6:_ZN9OpenZWave3Msg11SetInstanceEPNS_12CommandClassEh
libopenzwave.so.1.6:_ZN9OpenZWave3Msg16UpdateCallbackIdEv
libopenzwave.so.1.6:_ZN9OpenZWave3Msg6AppendEh
libopenzwave.so.1.6:_ZN9OpenZWave3Msg8FinalizeEv
libopenzwave.so.1.6:_ZN9OpenZWave3Msg9GetBufferEv
libopenzwave.so.1.6:_ZN9OpenZWave3MsgC1ERKNSt7__cxx1112basic_stringIcSt11char_traitsIcESaIcEEEhhhbbhh
libopenzwave.so.1.6:_ZN9OpenZWave3MsgC2ERKNSt7__cxx1112basic_stringIcSt11char_traitsIcESaIcEEEhhhbbhh
libopenzwave.so.1.6:_ZN9OpenZWave4Hail6CreateEjh
libopenzwave.so.1.6:_ZN9OpenZWave4Hail9HandleMsgEPKhjj
libopenzwave.so.1.6:_ZN9OpenZWave4Lock10CreateVarsEh
libopenzwave.so.1.6:_ZN9OpenZWave4Lock12RequestStateEjhNS_6Driver8MsgQueueE
libopenzwave.so.1.6:_ZN9OpenZWave4Lock12RequestValueEjthNS_6Driver8MsgQueueE
libopenzwave.so.1.6:_ZN9OpenZWave4Lock6CreateEjh
libopenzwave.so.1.6:_ZN9OpenZWave4Lock8SetValueERKNS_5ValueE
libopenzwave.so.1.6:_ZN9OpenZWave4Lock9HandleMsgEPKhjj
libopenzwave.so.1.6:_ZN9OpenZWave4Node10SetNodeOffEv
libopenzwave.so.1.6:_ZN9OpenZWave4Node10SetSecuredEb
libopenzwave.so.1.6:_ZN9OpenZWave4Node11DeviceClassC1EPK12TiXmlElement
libopenzwave.so.1.6:_ZN9OpenZWave4Node11DeviceClassC2EPK12TiXmlElement
libopenzwave.so.1.6:_ZN9OpenZWave4Node11GetMetaDataB5cxx11ENS0_14MetaDataFieldsE
libopenzwave.so.1.6:_ZN9OpenZWave4Node11GetNonceKeyEj
libopenzwave.so.1.6:_ZN9OpenZWave4Node11IsNodeResetEv
libopenzwave.so.1.6:_ZN9OpenZWave4Node11RemoveValueEhht
libopenzwave.so.1.6:_ZN9OpenZWave4Node11SetLocationERKNSt7__cxx1112basic_stringIcSt11char_traitsIcESaIcEEE
libopenzwave.so.1.6:_ZN9OpenZWave4Node11SetNodeNameERKNSt7__cxx1112basic_stringIcSt11char_traitsIcESaIcEEE
libopenzwave.so.1.6:_ZN9OpenZWave4Node11WriteGroupsEP12TiXmlElement
libopenzwave.so.1.6:_ZN9OpenZWave4Node12GetChangeLogEj
libopenzwave.so.1.6:_ZN9OpenZWave4Node12GetNeighborsEPPh
libopenzwave.so.1.6:_ZN9OpenZWave4Node12GetNumGroupsEv
libopenzwave.so.1.6:_ZN9OpenZWave4Node12SetNodeAliveEb
libopenzwave.so.1.6:_ZN9OpenZWave4Node13AutoAssociateEv
libopenzwave.so.1.6:_ZN9OpenZWave4Node13CreateValueIDENS_7ValueID10ValueGenreEhhtNS1_9ValueTypeE
libopenzwave.so.1.6:_ZN9OpenZWave4Node13GetGroupLabelB5cxx11Eh
libopenzwave.so.1.6:_ZN9OpenZWave4Node13GetMetaDataIdENSt7__cxx1112basic_stringIcSt11char_traitsIcESaIcEEE
libopenzwave.so.1.6:_ZN9OpenZWave4Node13SetQueryStageENS0_10QueryStageEb
libopenzwave.so.1.6:_ZN9OpenZWave4Node13getConfigPathB5cxx11Ev
libopenzwave.so.1.6:_ZN9OpenZWave4Node14AddAssociationEhhh
libopenzwave.so.1.6:_ZN9OpenZWave4Node14AdvanceQueriesEv
libopenzwave.so.1.6:_ZN9OpenZWave4Node14CreateValueIntENS_7ValueID10ValueGenreEhhtRKNSt7__cxx1112basic_stringIcSt11char_traitsIcESaIcEEESA_bbih
libopenzwave.so.1.6:_ZN9OpenZWave4Node14CreateValueRawENS_7ValueID10ValueGenreEhhtRKNSt7__cxx1112basic_stringIcSt11char_traitsIcESaIcEEESA_bbPKhhh
libopenzwave.so.1.6:_ZN9OpenZWave4Node14SetConfigParamEhih
libopenzwave.so.1.6:_ZN9OpenZWave4Node14UpdateNodeInfoEPKhh
libopenzwave.so.1.6:_ZN9OpenZWave4Node15AddCommandClassEhb
libopenzwave.so.1.6:_ZN9OpenZWave4Node15CreateValueBoolENS_7ValueID10ValueGenreEhhtRKNSt7__cxx1112basic_stringIcSt11char_traitsIcESaIcEEESA_bbbh
libopenzwave.so.1.6:_ZN9OpenZWave4Node15CreateValueByteENS_7ValueID10ValueGenreEhhtRKNSt7__cxx1112basic_stringIcSt11char_traitsIcESaIcEEESA_bbhh
libopenzwave.so.1.6:_ZN9OpenZWave4Node15CreateValueListENS_7ValueID10ValueGenreEhhtRKNSt7__cxx1112basic_stringIcSt11char_traitsIcESaIcEEESA_bbhRKSt6vectorINS_9ValueList4ItemESaISD_EEih
libopenzwave.so.1.6:_ZN9OpenZWave4Node15GetAssociationsEhPPNS_19InstanceAssociationE
libopenzwave.so.1.6:_ZN9OpenZWave4Node15GetAssociationsEhPPh
libopenzwave.so.1.6:_ZN9OpenZWave4Node15GetNumInstancesEh
libopenzwave.so.1.6:_ZN9OpenZWave4Node15IsMultiInstanceEh
libopenzwave.so.1.6:_ZN9OpenZWave4Node15QueryStageRetryENS0_10QueryStageEh
libopenzwave.so.1.6:_ZN9OpenZWave4Node15RemoveValueListEPNS_9ValueListE
libopenzwave.so.1.6:_ZN9OpenZWave4Node15SetProtocolInfoEPKhh
libopenzwave.so.1.6:_ZN9OpenZWave4Node16CreateValueShortENS_7ValueID10ValueGenreEhhtRKNSt7__cxx1112basic_stringIcSt11char_traitsIcESaIcEEESA_bbsh
libopenzwave.so.1.6:_ZN9OpenZWave4Node16GenerateNonceKeyEv
libopenzwave.so.1.6:_ZN9OpenZWave4Node16GetInstanceLabelB5cxx11Ehh
libopenzwave.so.1.6:_ZN9OpenZWave4Node16ReadValueFromXMLEhPK12TiXmlElement
libopenzwave.so.1.6:_ZN9OpenZWave4Node16SetDeviceClassesEhhh
libopenzwave.so.1.6:_ZN9OpenZWave4Node16SetInstanceLabelEhPc
libopenzwave.so.1.6:_ZN9OpenZWave4Node16WriteMetaDataXMLEP12TiXmlElement
libopenzwave.so.1.6:_ZN9OpenZWave4Node17CreateValueBitSetENS_7ValueID10ValueGenreEhhtRKNSt7__cxx1112basic_stringIcSt11char_traitsIcESaIcEEESA_bbih
libopenzwave.so.1.6:_ZN9OpenZWave4Node17CreateValueButtonENS_7ValueID10ValueGenreEhhtRKNSt7__cxx1112basic_stringIcSt11char_traitsIcESaIcEEEh
libopenzwave.so.1.6:_ZN9OpenZWave4Node17CreateValueStringENS_7ValueID10ValueGenreEhhtRKNSt7__cxx1112basic_stringIcSt11char_traitsIcESaIcEEESA_bbSA_h
libopenzwave.so.1.6:_ZN9OpenZWave4Node17GetMetaDataStringB5cxx11ENS0_14MetaDataFieldsE
libopenzwave.so.1.6:_ZN9OpenZWave4Node17GetNodeStatisticsEPNS0_8NodeDataE
libopenzwave.so.1.6:_ZN9OpenZWave4Node17GetNodeTypeStringB5cxx11Ev
libopenzwave.so.1.6:_ZN9OpenZWave4Node17GetQueryStageNameB5cxx11ENS0_10QueryStageE
libopenzwave.so.1.6:_ZN9OpenZWave4Node17GetRoleTypeStringB5cxx11Ev
libopenzwave.so.1.6:_ZN9OpenZWave4Node17ReadDeviceClassesEv
libopenzwave.so.1.6:_ZN9OpenZWave4Node17RemoveAssociationEhhh
libopenzwave.so.1.6:_ZN9OpenZWave4Node17SetProductDetailsEPNS_17ProductDescriptorE
libopenzwave.so.1.6:_ZN9OpenZWave4Node17SetSecuredClassesEPKhhj
libopenzwave.so.1.6:_ZN9OpenZWave4Node17SetStaticRequestsEv
libopenzwave.so.1.6:_ZN9OpenZWave4Node18CreateValueDecimalENS_7ValueID10ValueGenreEhhtRKNSt7__cxx1112basic_stringIcSt11char_traitsIcESaIcEEESA_bbSA_h
libopenzwave.so.1.6:_ZN9OpenZWave4Node18CreateValueFromXMLEhPK12TiXmlElement
libopenzwave.so.1.6:_ZN9OpenZWave4Node18GenericDeviceClass22GetSpecificDeviceClassERKh
libopenzwave.so.1.6:_ZN9OpenZWave4Node18GenericDeviceClassC1EPK12TiXmlElement
libopenzwave.so.1.6:_ZN9OpenZWave4Node18GenericDeviceClassC2EPK12TiXmlElement
libopenzwave.so.1.6:_ZN9OpenZWave4Node18GenericDeviceClassD1Ev
libopenzwave.so.1.6:_ZN9OpenZWave4Node18GenericDeviceClassD2Ev
libopenzwave.so.1.6:_ZN9OpenZWave4Node18GetMaxAssociationsEh
libopenzwave.so.1.6:_ZN9OpenZWave4Node18QueryStageCompleteENS0_10QueryStageE
libopenzwave.so.1.6:_ZN9OpenZWave4Node18RemoveCommandClassEh
libopenzwave.so.1.6:_ZN9OpenZWave4Node18RequestConfigParamEh
libopenzwave.so.1.6:_ZN9OpenZWave4Node18UpdateProtocolInfoEPKh
libopenzwave.so.1.6:_ZN9OpenZWave4Node19CreateValueScheduleENS_7ValueID10ValueGenreEhhtRKNSt7__cxx1112basic_stringIcSt11char_traitsIcESaIcEEESA_bbh
libopenzwave.so.1.6:_ZN9OpenZWave4Node19GetDeviceTypeStringB5cxx11Ev
libopenzwave.so.1.6:_ZN9OpenZWave4Node19ReadMetaDataFromXMLEPK12TiXmlElement
libopenzwave.so.1.6:_ZN9OpenZWave4Node20RequestDynamicValuesEv
libopenzwave.so.1.6:_ZN9OpenZWave4Node20SetPlusDeviceClassesEhht
libopenzwave.so.1.6:_ZN9OpenZWave4Node21ReadCommandClassesXMLEPK12TiXmlElement
libopenzwave.so.1.6:_ZN9OpenZWave4Node21ReadDeviceProtocolXMLEPK12TiXmlElement
libopenzwave.so.1.6:_ZN9OpenZWave4Node21RefreshValuesOnWakeupEv
libopenzwave.so.1.6:_ZN9OpenZWave4Node21setFileConfigRevisionEj
libopenzwave.so.1.6:_ZN9OpenZWave4Node22RequestAllConfigParamsEj
libopenzwave.so.1.6:_ZN9OpenZWave4Node23setLatestConfigRevisionEj
libopenzwave.so.1.6:_ZN9OpenZWave4Node23setLoadedConfigRevisionEj
libopenzwave.so.1.6:_ZN9OpenZWave4Node25ApplicationCommandHandlerEPKhb
libopenzwave.so.1.6:_ZN9OpenZWave4Node25checkLatestConfigRevisionEv
libopenzwave.so.1.6:_ZN9OpenZWave4Node26AddMandatoryCommandClassesEPKh
libopenzwave.so.1.6:_ZN9OpenZWave4Node27GetEndPointDeviceClassLabelB5cxx11Ehh
libopenzwave.so.1.6:_ZN9OpenZWave4Node7ReadXMLEPK12TiXmlElement
libopenzwave.so.1.6:_ZN9OpenZWave4Node8AddGroupEPNS_5GroupE
libopenzwave.so.1.6:_ZN9OpenZWave4Node8GetGroupEh
libopenzwave.so.1.6:_ZN9OpenZWave4Node8GetValueERKNS_7ValueIDE
libopenzwave.so.1.6:_ZN9OpenZWave4Node8GetValueEhht
libopenzwave.so.1.6:_ZN9OpenZWave4Node8SetLevelEh
libopenzwave.so.1.6:_ZN9OpenZWave4Node8WriteXMLEP12TiXmlElement
libopenzwave.so.1.6:_ZN9OpenZWave4Node9IsSecuredEv
libopenzwave.so.1.6:_ZN9OpenZWave4Node9SetNodeOnEv
libopenzwave.so.1.6:_ZN9OpenZWave4NodeC1Ejh
libopenzwave.so.1.6:_ZN9OpenZWave4NodeC2Ejh
libopenzwave.so.1.6:_ZN9OpenZWave4NodeD0Ev
libopenzwave.so.1.6:_ZN9OpenZWave4NodeD1Ev
libopenzwave.so.1.6:_ZN9OpenZWave4NodeD2Ev
libopenzwave.so.1.6:_ZN9OpenZWave4Wait10AddWatcherEPFvPvES1_
libopenzwave.so.1.6:_ZN9OpenZWave4Wait13RemoveWatcherEPFvPvES1_
libopenzwave.so.1.6:_ZN9OpenZWave4Wait6NotifyEv
libopenzwave.so.1.6:_ZN9OpenZWave4Wait8MultipleEPPS0_ji
libopenzwave.so.1.6:_ZN9OpenZWave4WaitC1Ev
libopenzwave.so.1.6:_ZN9OpenZWave4WaitC2Ev
libopenzwave.so.1.6:_ZN9OpenZWave4WaitD0Ev
libopenzwave.so.1.6:_ZN9OpenZWave4WaitD1Ev
libopenzwave.so.1.6:_ZN9OpenZWave4WaitD2Ev
libopenzwave.so.1.6:_ZN9OpenZWave4trimERNSt7__cxx1112basic_stringIcSt11char_traitsIcESaIcEEE
libopenzwave.so.1.6:_ZN9OpenZWave5Alarm10ClearAlarmEj
libopenzwave.so.1.6:_ZN9OpenZWave5Alarm11SetupEventsEjjPSt6vectorINS_9ValueList4ItemESaIS3_EEj
libopenzwave.so.1.6:_ZN9OpenZWave5Alarm12RequestStateEjhNS_6Driver8MsgQueueE
libopenzwave.so.1.6:_ZN9OpenZWave5Alarm12RequestValueEjthNS_6Driver8MsgQueueE
libopenzwave.so.1.6:_ZN9OpenZWave5Alarm16ClearEventParamsEj
libopenzwave.so.1.6:_ZN9OpenZWave5Alarm6CreateEjh
libopenzwave.so.1.6:_ZN9OpenZWave5Alarm8SetValueERKNS_5ValueE
libopenzwave.so.1.6:_ZN9OpenZWave5Alarm9HandleMsgEPKhjj
libopenzwave.so.1.6:_ZN9OpenZWave5AlarmC1Ejh
libopenzwave.so.1.6:_ZN9OpenZWave5AlarmC2Ejh
libopenzwave.so.1.6:_ZN9OpenZWave5Basic10CreateVarsEh
libopenzwave.so.1.6:_ZN9OpenZWave5Basic10SetMappingEhb
libopenzwave.so.1.6:_ZN9OpenZWave5Basic12RequestStateEjhNS_6Driver8MsgQueueE
libopenzwave.so.1.6:_ZN9OpenZWave5Basic12RequestValueEjthNS_6Driver8MsgQueueE
libopenzwave.so.1.6:_ZN9OpenZWave5Basic3SetEh
libopenzwave.so.1.6:_ZN9OpenZWave5Basic6CreateEjh
libopenzwave.so.1.6:_ZN9OpenZWave5Basic7ReadXMLEPK12TiXmlElement
libopenzwave.so.1.6:_ZN9OpenZWave5Basic8SetValueERKNS_5ValueE
libopenzwave.so.1.6:_ZN9OpenZWave5Basic9HandleMsgEPKhjj
libopenzwave.so.1.6:_ZN9OpenZWave5BasicC1Ejh
libopenzwave.so.1.6:_ZN9OpenZWave5BasicC2Ejh
libopenzwave.so.1.6:_ZN9OpenZWave5Clock10CreateVarsEh
libopenzwave.so.1.6:_ZN9OpenZWave5Clock12RequestStateEjhNS_6Driver8MsgQueueE
libopenzwave.so.1.6:_ZN9OpenZWave5Clock12RequestValueEjthNS_6Driver8MsgQueueE
libopenzwave.so.1.6:_ZN9OpenZWave5Clock6CreateEjh
libopenzwave.so.1.6:_ZN9OpenZWave5Clock8SetValueERKNS_5ValueE
libopenzwave.so.1.6:_ZN9OpenZWave5Clock9HandleMsgEPKhjj
libopenzwave.so.1.6:_ZN9OpenZWave5Color10CreateVarsEh
libopenzwave.so.1.6:_ZN9OpenZWave5Color12RequestStateEjhNS_6Driver8MsgQueueE
libopenzwave.so.1.6:_ZN9OpenZWave5Color12RequestValueEjthNS_6Driver8MsgQueueE
libopenzwave.so.1.6:_ZN9OpenZWave5Color13SetValueBasicEhh
libopenzwave.so.1.6:_ZN9OpenZWave5Color25RequestColorChannelReportEhhNS_6Driver8MsgQueueE
libopenzwave.so.1.6:_ZN9OpenZWave5Color6CreateEjh
libopenzwave.so.1.6:_ZN9OpenZWave5Color8SetValueERKNS_5ValueE
libopenzwave.so.1.6:_ZN9OpenZWave5Color9HandleMsgEPKhjj
libopenzwave.so.1.6:_ZN9OpenZWave5ColorC1Ejh
libopenzwave.so.1.6:_ZN9OpenZWave5ColorC2Ejh
libopenzwave.so.1.6:_ZN9OpenZWave5Event11IsSignalledEv
libopenzwave.so.1.6:_ZN9OpenZWave5Event3SetEv
libopenzwave.so.1.6:_ZN9OpenZWave5Event4WaitEi
libopenzwave.so.1.6:_ZN9OpenZWave5Event5ResetEv
libopenzwave.so.1.6:_ZN9OpenZWave5EventC1Ev
libopenzwave.so.1.6:_ZN9OpenZWave5EventC2Ev
libopenzwave.so.1.6:_ZN9OpenZWave5EventD0Ev
libopenzwave.so.1.6:_ZN9OpenZWave5EventD1Ev
libopenzwave.so.1.6:_ZN9OpenZWave5EventD2Ev
libopenzwave.so.1.6:_ZN9OpenZWave5Group10AddCommandEhhPKhh
libopenzwave.so.1.6:_ZN9OpenZWave5Group13ClearCommandsEhh
libopenzwave.so.1.6:_ZN9OpenZWave5Group14AddAssociationEhh
libopenzwave.so.1.6:_ZN9OpenZWave5Group14OnGroupChangedERKSt6vectorINS_19InstanceAssociationESaIS2_EE
libopenzwave.so.1.6:_ZN9OpenZWave5Group14OnGroupChangedERKSt6vectorIhSaIhEE
libopenzwave.so.1.6:_ZN9OpenZWave5Group15GetAssociationsEPPNS_19InstanceAssociationE
libopenzwave.so.1.6:_ZN9OpenZWave5Group15GetAssociationsEPPh
libopenzwave.so.1.6:_ZN9OpenZWave5Group17RemoveAssociationEhh
libopenzwave.so.1.6:_ZN9OpenZWave5Group18AssociationCommandC1EhPKh
libopenzwave.so.1.6:_ZN9OpenZWave5Group18AssociationCommandC2EhPKh
libopenzwave.so.1.6:_ZN9OpenZWave5Group18AssociationCommandD1Ev
libopenzwave.so.1.6:_ZN9OpenZWave5Group18AssociationCommandD2Ev
libopenzwave.so.1.6:_ZN9OpenZWave5Group8ContainsEhh
libopenzwave.so.1.6:_ZN9OpenZWave5Group8WriteXMLEP12TiXmlElement
libopenzwave.so.1.6:_ZN9OpenZWave5Group9CheckAutoEv
libopenzwave.so.1.6:_ZN9OpenZWave5GroupC1EjhPK12TiXmlElement
libopenzwave.so.1.6:_ZN9OpenZWave5GroupC1Ejhhh
libopenzwave.so.1.6:_ZN9OpenZWave5GroupC2EjhPK12TiXmlElement
libopenzwave.so.1.6:_ZN9OpenZWave5GroupC2Ejhhh
libopenzwave.so.1.6:_ZN9OpenZWave5Meter10CreateVarsEh
libopenzwave.so.1.6:_ZN9OpenZWave5Meter12HandleReportEPKhjj
libopenzwave.so.1.6:_ZN9OpenZWave5Meter12RequestStateEjhNS_6Driver8MsgQueueE
libopenzwave.so.1.6:_ZN9OpenZWave5Meter12RequestValueEjthNS_6Driver8MsgQueueE
libopenzwave.so.1.6:_ZN9OpenZWave5Meter21HandleSupportedReportEPKhjj
libopenzwave.so.1.6:_ZN9OpenZWave5Meter6CreateEjh
libopenzwave.so.1.6:_ZN9OpenZWave5Meter8SetValueERKNS_5ValueE
libopenzwave.so.1.6:_ZN9OpenZWave5Meter9HandleMsgEPKhjj
libopenzwave.so.1.6:_ZN9OpenZWave5MeterC1Ejh
libopenzwave.so.1.6:_ZN9OpenZWave5MeterC2Ejh
libopenzwave.so.1.6:_ZN9OpenZWave5Mutex11IsSignalledEv
libopenzwave.so.1.6:_ZN9OpenZWave5Mutex4LockEb
libopenzwave.so.1.6:_ZN9OpenZWave5Mutex6UnlockEv
libopenzwave.so.1.6:_ZN9OpenZWave5MutexC1Ev
libopenzwave.so.1.6:_ZN9OpenZWave5MutexC2Ev
libopenzwave.so.1.6:_ZN9OpenZWave5MutexD0Ev
libopenzwave.so.1.6:_ZN9OpenZWave5MutexD1Ev
libopenzwave.so.1.6:_ZN9OpenZWave5MutexD2Ev
libopenzwave.so.1.6:_ZN9OpenZWave5Scene10ReadScenesEv
libopenzwave.so.1.6:_ZN9OpenZWave5Scene11RemoveValueERKNS_7ValueIDE
libopenzwave.so.1.6:_ZN9OpenZWave5Scene12GetAllScenesEPPh
libopenzwave.so.1.6:_ZN9OpenZWave5Scene12RemoveValuesEj
libopenzwave.so.1.6:_ZN9OpenZWave5Scene12RemoveValuesEjh
libopenzwave.so.1.6:_ZN9OpenZWave5Scene3GetEh
libopenzwave.so.1.6:_ZN9OpenZWave5Scene8ActivateEv
libopenzwave.so.1.6:_ZN9OpenZWave5Scene8AddValueERKNS_7ValueIDERKNSt7__cxx1112basic_stringIcSt11char_traitsIcESaIcEEE
libopenzwave.so.1.6:_ZN9OpenZWave5Scene8GetValueERKNS_7ValueIDEPNSt7__cxx1112basic_stringIcSt11char_traitsIcESaIcEEE
libopenzwave.so.1.6:_ZN9OpenZWave5Scene8SetValueERKNS_7ValueIDERKNSt7__cxx1112basic_stringIcSt11char_traitsIcESaIcEEE
libopenzwave.so.1.6:_ZN9OpenZWave5Scene8WriteXMLERKNSt7__cxx1112basic_stringIcSt11char_traitsIcESaIcEEE
libopenzwave.so.1.6:_ZN9OpenZWave5Scene9GetValuesEPSt6vectorINS_7ValueIDESaIS2_EE
libopenzwave.so.1.6:_ZN9OpenZWave5SceneC1Eh
libopenzwave.so.1.6:_ZN9OpenZWave5SceneC2Eh
libopenzwave.so.1.6:_ZN9OpenZWave5SceneD1Ev
libopenzwave.so.1.6:_ZN9OpenZWave5SceneD2Ev
libopenzwave.so.1.6:_ZN9OpenZWave5Timer13TimerDelEventEPNS_11TimerThread15TimerEventEntryE
libopenzwave.so.1.6:_ZN9OpenZWave5Timer13TimerDelEventEj
libopenzwave.so.1.6:_ZN9OpenZWave5Timer13TimerSetEventEiSt8functionIFvjEEj
libopenzwave.so.1.6:_ZN9OpenZWave5Timer14TimerDelEventsEv
libopenzwave.so.1.6:_ZN9OpenZWave5Timer14TimerFireEventEPNS_11TimerThread15TimerEventEntryE
libopenzwave.so.1.6:_ZN9OpenZWave5Timer9SetDriverEPNS_6DriverE
libopenzwave.so.1.6:_ZN9OpenZWave5TimerC1EPNS_6DriverE
libopenzwave.so.1.6:_ZN9OpenZWave5TimerC1Ev
libopenzwave.so.1.6:_ZN9OpenZWave5TimerC2EPNS_6DriverE
libopenzwave.so.1.6:_ZN9OpenZWave5TimerC2Ev
libopenzwave.so.1.6:_ZN9OpenZWave5TimerD1Ev
libopenzwave.so.1.6:_ZN9OpenZWave5TimerD2Ev
libopenzwave.so.1.6:_ZN9OpenZWave5Value14OnValueChangedEv
libopenzwave.so.1.6:_ZN9OpenZWave5Value16OnValueRefreshedEv
libopenzwave.so.1.6:_ZN9OpenZWave5Value19GetTypeEnumFromNameEPKc
libopenzwave.so.1.6:_ZN9OpenZWave5Value19GetTypeNameFromEnumENS_7ValueID9ValueTypeE
libopenzwave.so.1.6:_ZN9OpenZWave5Value20GetGenreEnumFromNameEPKc
libopenzwave.so.1.6:_ZN9OpenZWave5Value20GetGenreNameFromEnumENS_7ValueID10ValueGenreE
libopenzwave.so.1.6:_ZN9OpenZWave5Value20VerifyRefreshedValueEPvS1_S1_NS_7ValueID9ValueTypeEiii
libopenzwave.so.1.6:_ZN9OpenZWave5Value3SetEv
libopenzwave.so.1.6:_ZN9OpenZWave5Value7ReadXMLEjhhPK12TiXmlElement
libopenzwave.so.1.6:_ZN9OpenZWave5Value7SetHelpERKNSt7__cxx1112basic_stringIcSt11char_traitsIcESaIcEEES6_
libopenzwave.so.1.6:_ZN9OpenZWave5Value8SetLabelERKNSt7__cxx1112basic_stringIcSt11char_traitsIcESaIcEEES6_
libopenzwave.so.1.6:_ZN9OpenZWave5Value8WriteXMLEP12TiXmlElement
libopenzwave.so.1.6:_ZN9OpenZWave5ValueC1EjhNS_7ValueID10ValueGenreEhhtNS1_9ValueTypeERKNSt7__cxx1112basic_stringIcSt11char_traitsIcESaIcEEESB_bbbh
libopenzwave.so.1.6:_ZN9OpenZWave5ValueC1Ev
libopenzwave.so.1.6:_ZN9OpenZWave5ValueC2EjhNS_7ValueID10ValueGenreEhhtNS1_9ValueTypeERKNSt7__cxx1112basic_stringIcSt11char_traitsIcESaIcEEESB_bbbh
libopenzwave.so.1.6:_ZN9OpenZWave5ValueC2Ev
libopenzwave.so.1.6:_ZN9OpenZWave5ValueD0Ev
libopenzwave.so.1.6:_ZN9OpenZWave5ValueD1Ev
libopenzwave.so.1.6:_ZN9OpenZWave5ValueD2Ev
libopenzwave.so.1.6:_ZN9OpenZWave5splitERSt6vectorINSt7__cxx1112basic_stringIcSt11char_traitsIcESaIcEEESaIS6_EERKS6_SB_b
libopenzwave.so.1.6:_ZN9OpenZWave6Driver10EnablePollERKNS_7ValueIDEh
libopenzwave.so.1.6:_ZN9OpenZWave6Driver10GetAuthKeyEv
libopenzwave.so.1.6:_ZN9OpenZWave6Driver10ProcessMsgEPhh
libopenzwave.so.1.6:_ZN9OpenZWave6Driver10ReloadNodeEh
libopenzwave.so.1.6:_ZN9OpenZWave6Driver10SetNodeOffEh
libopenzwave.so.1.6:_ZN9OpenZWave6Driver10WriteCacheEv
libopenzwave.so.1.6:_ZN9OpenZWave6Driver11AddNodeStopEh
libopenzwave.so.1.6:_ZN9OpenZWave6Driver11DisablePollERKNS_7ValueIDE
libopenzwave.so.1.6:_ZN9OpenZWave6Driver11GetMetaDataB5cxx11EhNS_4Node14MetaDataFieldsE
libopenzwave.so.1.6:_ZN9OpenZWave6Driver11GetNodeNameB5cxx11Eh
libopenzwave.so.1.6:_ZN9OpenZWave6Driver11GetNodeRoleEh
libopenzwave.so.1.6:_ZN9OpenZWave6Driver11GetNodeTypeB5cxx11Eh
libopenzwave.so.1.6:_ZN9OpenZWave6Driver11ReadButtonsEh
libopenzwave.so.1.6:_ZN9OpenZWave6Driver11SaveButtonsEv
libopenzwave.so.1.6:_ZN9OpenZWave6Driver11SetNodeNameEhRKNSt7__cxx1112basic_stringIcSt11char_traitsIcESaIcEEE
libopenzwave.so.1.6:_ZN9OpenZWave6Driver11SwitchAllOnEv
libopenzwave.so.1.6:_ZN9OpenZWave6Driver11TestNetworkEhj
libopenzwave.so.1.6:_ZN9OpenZWave6Driver12GetChangeLogEhj
libopenzwave.so.1.6:_ZN9OpenZWave6Driver12GetNodeBasicEh
libopenzwave.so.1.6:_ZN9OpenZWave6Driver12GetNumGroupsEh
libopenzwave.so.1.6:_ZN9OpenZWave6Driver12InitAllNodesEv
libopenzwave.so.1.6:_ZN9OpenZWave6Driver12RemoveQueuesEh
libopenzwave.so.1.6:_ZN9OpenZWave6Driver12SendNonceKeyEhPh
libopenzwave.so.1.6:_ZN9OpenZWave6Driver12SetNodeLevelEhh
libopenzwave.so.1.6:_ZN9OpenZWave6Driver12SwitchAllOffEv
libopenzwave.so.1.6:_ZN9OpenZWave6Driver12WriteNextMsgENS0_8MsgQueueE
libopenzwave.so.1.6:_ZN9OpenZWave6Driver13GetGroupLabelB5cxx11Ehh
libopenzwave.so.1.6:_ZN9OpenZWave6Driver13GetNetworkKeyEv
libopenzwave.so.1.6:_ZN9OpenZWave6Driver13GetNodeUnsafeEh
libopenzwave.so.1.6:_ZN9OpenZWave6Driver13setHttpClientEPNS_12i_HttpClientE
libopenzwave.so.1.6:_ZN9OpenZWave6Driver14AddAssociationEhhhh
libopenzwave.so.1.6:_ZN9OpenZWave6Driver14GetNodeGenericEh
libopenzwave.so.1.6:_ZN9OpenZWave6Driver14GetNodeVersionEh
libopenzwave.so.1.6:_ZN9OpenZWave6Driver14NotifyWatchersEv
libopenzwave.so.1.6:_ZN9OpenZWave6Driver14PollThreadProcEPNS_5EventE
libopenzwave.so.1.6:_ZN9OpenZWave6Driver14SetConfigParamEhhih
libopenzwave.so.1.6:_ZN9OpenZWave6Driver14SubmitEventMsgEPNS0_8EventMsgE
libopenzwave.so.1.6:_ZN9OpenZWave6Driver15GetAssociationsEhhPPNS_19InstanceAssociationE
libopenzwave.so.1.6:_ZN9OpenZWave6Driver15GetAssociationsEhhPPh
libopenzwave.so.1.6:_ZN9OpenZWave6Driver15GetNodeLocationB5cxx11Eh
libopenzwave.so.1.6:_ZN9OpenZWave6Driver15GetNodePlusTypeEh
libopenzwave.so.1.6:_ZN9OpenZWave6Driver15GetNodeSecurityEh
libopenzwave.so.1.6:_ZN9OpenZWave6Driver15GetNodeSpecificEh
libopenzwave.so.1.6:_ZN9OpenZWave6Driver15IsExpectedReplyEh
libopenzwave.so.1.6:_ZN9OpenZWave6Driver15IsMultiInstanceEhh
libopenzwave.so.1.6:_ZN9OpenZWave6Driver15IsNodeZWavePlusEh
libopenzwave.so.1.6:_ZN9OpenZWave6Driver15NodeFromMessageEPKh
libopenzwave.so.1.6:_ZN9OpenZWave6Driver15ProcessEventMsgEv
libopenzwave.so.1.6:_ZN9OpenZWave6Driver15ResetControllerEPNS_5EventE
libopenzwave.so.1.6:_ZN9OpenZWave6Driver15SetNodeLocationEhRKNSt7__cxx1112basic_stringIcSt11char_traitsIcESaIcEEE
libopenzwave.so.1.6:_ZN9OpenZWave6Driver15initNetworkKeysEb
libopenzwave.so.1.6:_ZN9OpenZWave6Driver15isNetworkKeySetEv
libopenzwave.so.1.6:_ZN9OpenZWave6Driver15processDownloadEPNS_12HttpDownloadE
libopenzwave.so.1.6:_ZN9OpenZWave6Driver16DriverThreadProcEPNS_5EventE
libopenzwave.so.1.6:_ZN9OpenZWave6Driver16GetNodeNeighborsEhPPh
libopenzwave.so.1.6:_ZN9OpenZWave6Driver16GetNodeProductIdEh
libopenzwave.so.1.6:_ZN9OpenZWave6Driver16RemoveCurrentMsgEv
libopenzwave.so.1.6:_ZN9OpenZWave6Driver16SendNonceRequestENSt7__cxx1112basic_stringIcSt11char_traitsIcESaIcEEE
libopenzwave.so.1.6:_ZN9OpenZWave6Driver16SetPollIntensityERKNS_7ValueIDEh
libopenzwave.so.1.6:_ZN9OpenZWave6Driver16UpdateNodeRoutesEhb
libopenzwave.so.1.6:_ZN9OpenZWave6Driver16startMFSDownloadENSt7__cxx1112basic_stringIcSt11char_traitsIcESaIcEEE
libopenzwave.so.1.6:_ZN9OpenZWave6Driver17GetNodeDeviceTypeEh
libopenzwave.so.1.6:_ZN9OpenZWave6Driver17GetNodeRoleStringB5cxx11Eh
libopenzwave.so.1.6:_ZN9OpenZWave6Driver17GetNodeStatisticsEhPNS_4Node8NodeDataE
libopenzwave.so.1.6:_ZN9OpenZWave6Driver17QueueNotificationEPNS_12NotificationE
libopenzwave.so.1.6:_ZN9OpenZWave6Driver17RemoveAssociationEhhhh
libopenzwave.so.1.6:_ZN9OpenZWave6Driver17refreshNodeConfigEh
libopenzwave.so.1.6:_ZN9OpenZWave6Driver18GetMaxAssociationsEhh
libopenzwave.so.1.6:_ZN9OpenZWave6Driver18GetNodeMaxBaudRateEh
libopenzwave.so.1.6:_ZN9OpenZWave6Driver18GetNodeProductNameB5cxx11Eh
libopenzwave.so.1.6:_ZN9OpenZWave6Driver18GetNodeProductTypeEh
libopenzwave.so.1.6:_ZN9OpenZWave6Driver18RequestConfigParamEhh
libopenzwave.so.1.6:_ZN9OpenZWave6Driver18SetNodeProductNameEhRKNSt7__cxx1112basic_stringIcSt11char_traitsIcESaIcEEE
libopenzwave.so.1.6:_ZN9OpenZWave6Driver19DoControllerCommandEv
libopenzwave.so.1.6:_ZN9OpenZWave6Driver19GetDriverStatisticsEPNS0_10DriverDataE
libopenzwave.so.1.6:_ZN9OpenZWave6Driver19GetVirtualNeighborsEPPh
libopenzwave.so.1.6:_ZN9OpenZWave6Driver19HandleErrorResponseEhhPKcb
libopenzwave.so.1.6:_ZN9OpenZWave6Driver19IsNodeBeamingDeviceEh
libopenzwave.so.1.6:_ZN9OpenZWave6Driver19IsNodeRoutingDeviceEh
libopenzwave.so.1.6:_ZN9OpenZWave6Driver19LogDriverStatisticsEv
libopenzwave.so.1.6:_ZN9OpenZWave6Driver19SendVirtualNodeInfoEhh
libopenzwave.so.1.6:_ZN9OpenZWave6Driver19downloadMFSRevisionEv
libopenzwave.so.1.6:_ZN9OpenZWave6Driver19startConfigDownloadEtttNSt7__cxx1112basic_stringIcSt11char_traitsIcESaIcEEEh
libopenzwave.so.1.6:_ZN9OpenZWave6Driver20IsNodeSecurityDeviceEh
libopenzwave.so.1.6:_ZN9OpenZWave6Driver20PollThreadEntryPointEPNS_5EventEPv
libopenzwave.so.1.6:_ZN9OpenZWave6Driver20RequestNodeNeighborsEhj
libopenzwave.so.1.6:_ZN9OpenZWave6Driver20SendEncryptedMessageEv
libopenzwave.so.1.6:_ZN9OpenZWave6Driver21GetNodeManufacturerIdEh
libopenzwave.so.1.6:_ZN9OpenZWave6Driver21GetNodePlusTypeStringB5cxx11Eh
libopenzwave.so.1.6:_ZN9OpenZWave6Driver21HandleSendDataRequestEPhhb
libopenzwave.so.1.6:_ZN9OpenZWave6Driver21IsNodeListeningDeviceEh
libopenzwave.so.1.6:_ZN9OpenZWave6Driver21SendSlaveLearnModeOffEv
libopenzwave.so.1.6:_ZN9OpenZWave6Driver21UpdateControllerStateENS0_15ControllerStateENS0_15ControllerErrorE
libopenzwave.so.1.6:_ZN9OpenZWave6Driver21processConfigRevisionEPNS_9DNSLookupE
libopenzwave.so.1.6:_ZN9OpenZWave6Driver22BeginControllerCommandENS0_17ControllerCommandEPFvNS0_15ControllerStateENS0_15ControllerErrorEPvES4_bhh
libopenzwave.so.1.6:_ZN9OpenZWave6Driver22CheckMFSConfigRevisionEv
libopenzwave.so.1.6:_ZN9OpenZWave6Driver22DriverThreadEntryPointEPNS_5EventEPv
libopenzwave.so.1.6:_ZN9OpenZWave6Driver22HandleSendDataResponseEPhb
libopenzwave.so.1.6:_ZN9OpenZWave6Driver22SendQueryStageCompleteEhNS_4Node10QueryStageE
libopenzwave.so.1.6:_ZN9OpenZWave6Driver22downloadConfigRevisionEPNS_4NodeE
libopenzwave.so.1.6:_ZN9OpenZWave6Driver23CancelControllerCommandEv
libopenzwave.so.1.6:_ZN9OpenZWave6Driver23CheckNodeConfigRevisionEPNS_4NodeE
libopenzwave.so.1.6:_ZN9OpenZWave6Driver23GetNodeDeviceTypeStringB5cxx11Eh
libopenzwave.so.1.6:_ZN9OpenZWave6Driver23GetNodeManufacturerNameB5cxx11Eh
libopenzwave.so.1.6:_ZN9OpenZWave6Driver23HandleEnableSUCResponseEPh
libopenzwave.so.1.6:_ZN9OpenZWave6Driver23HandleGetRandomResponseEPh
libopenzwave.so.1.6:_ZN9OpenZWave6Driver23RequestVirtualNeighborsENS0_8MsgQueueE
libopenzwave.so.1.6:_ZN9OpenZWave6Driver23RetryQueryStageCompleteEhNS_4Node10QueryStageE
libopenzwave.so.1.6:_ZN9OpenZWave6Driver23SetNodeManufacturerNameEhRKNSt7__cxx1112basic_stringIcSt11char_traitsIcESaIcEEE
libopenzwave.so.1.6:_ZN9OpenZWave6Driver24HandleGetVersionResponseEPh
libopenzwave.so.1.6:_ZN9OpenZWave6Driver24HandleReadMemoryResponseEPh
libopenzwave.so.1.6:_ZN9OpenZWave6Driver25CheckCompletedNodeQueriesEv
libopenzwave.so.1.6:_ZN9OpenZWave6Driver25GetManufacturerSpecificDBEv
libopenzwave.so.1.6:_ZN9OpenZWave6Driver25HandleMemoryGetIdResponseEPh
libopenzwave.so.1.6:_ZN9OpenZWave6Driver25HandleSetLearnModeRequestEPh
libopenzwave.so.1.6:_ZN9OpenZWave6Driver25MoveMessagesToWakeUpQueueEhb
libopenzwave.so.1.6:_ZN9OpenZWave6Driver26HandleGetSUCNodeIdResponseEPh
libopenzwave.so.1.6:_ZN9OpenZWave6Driver26HandleIsFailedNodeResponseEPh
libopenzwave.so.1.6:_ZN9OpenZWave6Driver26HandleNetworkUpdateRequestEPh
libopenzwave.so.1.6:_ZN9OpenZWave6Driver26HandleSetSUCNodeIdResponseEPh
libopenzwave.so.1.6:_ZN9OpenZWave6Driver27HandleMemoryGetByteResponseEPh
libopenzwave.so.1.6:_ZN9OpenZWave6Driver27HandleNetworkUpdateResponseEPh
libopenzwave.so.1.6:_ZN9OpenZWave6Driver27HandleSerialAPIResetRequestEPh
libopenzwave.so.1.6:_ZN9OpenZWave6Driver28HandleGetRoutingInfoResponseEPh
libopenzwave.so.1.6:_ZN9OpenZWave6Driver28HandleSerialAPISetupResponseEPh
libopenzwave.so.1.6:_ZN9OpenZWave6Driver29HandleAddNodeToNetworkRequestEPh
libopenzwave.so.1.6:_ZN9OpenZWave6Driver29HandleControllerChangeRequestEPh
libopenzwave.so.1.6:_ZN9OpenZWave6Driver29HandleCreateNewPrimaryRequestEPh
libopenzwave.so.1.6:_ZN9OpenZWave6Driver29HandleGetVirtualNodesResponseEPh
libopenzwave.so.1.6:_ZN9OpenZWave6Driver29HandleRemoveFailedNodeRequestEPh
libopenzwave.so.1.6:_ZN9OpenZWave6Driver29HandleRfPowerLevelSetResponseEPh
libopenzwave.so.1.6:_ZN9OpenZWave6Driver29IsNodeFrequentListeningDeviceEh
libopenzwave.so.1.6:_ZN9OpenZWave6Driver30HandleApplicationUpdateRequestEPh
libopenzwave.so.1.6:_ZN9OpenZWave6Driver30HandleAssignReturnRouteRequestEPh
libopenzwave.so.1.6:_ZN9OpenZWave6Driver30HandleDeleteReturnRouteRequestEPh
libopenzwave.so.1.6:_ZN9OpenZWave6Driver30HandleRemoveFailedNodeResponseEPh
libopenzwave.so.1.6:_ZN9OpenZWave6Driver30HandleReplaceFailedNodeRequestEPh
libopenzwave.so.1.6:_ZN9OpenZWave6Driver30HandleSendSlaveNodeInfoRequestEPh
libopenzwave.so.1.6:_ZN9OpenZWave6Driver30HandleSetSlaveLearnModeRequestEPh
libopenzwave.so.1.6:_ZN9OpenZWave6Driver31HandleAssignReturnRouteResponseEPh
libopenzwave.so.1.6:_ZN9OpenZWave6Driver31HandleDeleteReturnRouteResponseEPh
libopenzwave.so.1.6:_ZN9OpenZWave6Driver31HandleNodeNeighborUpdateRequestEPh
libopenzwave.so.1.6:_ZN9OpenZWave6Driver31HandleReplaceFailedNodeResponseEPh
libopenzwave.so.1.6:_ZN9OpenZWave6Driver31HandleSendSlaveNodeInfoResponseEPh
libopenzwave.so.1.6:_ZN9OpenZWave6Driver31HandleSetSlaveLearnModeResponseEPh
libopenzwave.so.1.6:_ZN9OpenZWave6Driver32HandleSendNodeInformationRequestEPh
libopenzwave.so.1.6:_ZN9OpenZWave6Driver32HandleSerialAPISoftResetResponseEPh
libopenzwave.so.1.6:_ZN9OpenZWave6Driver33CommonAddNodeStatusRequestHandlerEhPh
libopenzwave.so.1.6:_ZN9OpenZWave6Driver33HandleGetNodeProtocolInfoResponseEPh
libopenzwave.so.1.6:_ZN9OpenZWave6Driver34HandleRemoveNodeFromNetworkRequestEPh
libopenzwave.so.1.6:_ZN9OpenZWave6Driver34HandleSerialAPIGetInitDataResponseEPh
libopenzwave.so.1.6:_ZN9OpenZWave6Driver34HandleSerialApiSetTimeoutsResponseEPh
libopenzwave.so.1.6:_ZN9OpenZWave6Driver36HandleApplicationSlaveCommandRequestEPh
libopenzwave.so.1.6:_ZN9OpenZWave6Driver38HandleApplicationCommandHandlerRequestEPhb
libopenzwave.so.1.6:_ZN9OpenZWave6Driver38HandleGetSerialAPICapabilitiesResponseEPh
libopenzwave.so.1.6:_ZN9OpenZWave6Driver39HandleGetControllerCapabilitiesResponseEPh
libopenzwave.so.1.6:_ZN9OpenZWave6Driver49HandlePromiscuousApplicationCommandHandlerRequestEPh
libopenzwave.so.1.6:_ZN9OpenZWave6Driver4InitEj
libopenzwave.so.1.6:_ZN9OpenZWave6Driver5StartEv
libopenzwave.so.1.6:_ZN9OpenZWave6Driver7GetNodeEh
libopenzwave.so.1.6:_ZN9OpenZWave6Driver7ReadMsgEv
libopenzwave.so.1.6:_ZN9OpenZWave6Driver7SendMsgEPNS_3MsgENS0_8MsgQueueE
libopenzwave.so.1.6:_ZN9OpenZWave6Driver8GetValueERKNS_7ValueIDE
libopenzwave.so.1.6:_ZN9OpenZWave6Driver8InitNodeEhbbPKhh
libopenzwave.so.1.6:_ZN9OpenZWave6Driver8WriteMsgERKNSt7__cxx1112basic_stringIcSt11char_traitsIcESaIcEEE
libopenzwave.so.1.6:_ZN9OpenZWave6Driver8isPolledERKNS_7ValueIDE
libopenzwave.so.1.6:_ZN9OpenZWave6Driver9GetEncKeyEv
libopenzwave.so.1.6:_ZN9OpenZWave6Driver9ReadCacheEv
libopenzwave.so.1.6:_ZN9OpenZWave6Driver9SetNodeOnEh
libopenzwave.so.1.6:_ZN9OpenZWave6Driver9SoftResetEv
libopenzwave.so.1.6:_ZN9OpenZWave6DriverC1ERKNSt7__cxx1112basic_stringIcSt11char_traitsIcESaIcEEERKNS0_19ControllerInterfaceE
libopenzwave.so.1.6:_ZN9OpenZWave6DriverC2ERKNSt7__cxx1112basic_stringIcSt11char_traitsIcESaIcEEERKNS0_19ControllerInterfaceE
libopenzwave.so.1.6:_ZN9OpenZWave6DriverD0Ev
libopenzwave.so.1.6:_ZN9OpenZWave6DriverD1Ev
libopenzwave.so.1.6:_ZN9OpenZWave6DriverD2Ev
libopenzwave.so.1.6:_ZN9OpenZWave6Stream11IsSignalledEv
libopenzwave.so.1.6:_ZN9OpenZWave6Stream18SetSignalThresholdEj
libopenzwave.so.1.6:_ZN9OpenZWave6Stream3GetEPhj
libopenzwave.so.1.6:_ZN9OpenZWave6Stream3PutEPhj
libopenzwave.so.1.6:_ZN9OpenZWave6Stream5PurgeEv
libopenzwave.so.1.6:_ZN9OpenZWave6Stream7LogDataEPhjRKNSt7__cxx1112basic_stringIcSt11char_traitsIcESaIcEEE
libopenzwave.so.1.6:_ZN9OpenZWave6StreamC1Ej
libopenzwave.so.1.6:_ZN9OpenZWave6StreamC2Ej
libopenzwave.so.1.6:_ZN9OpenZWave6StreamD0Ev
libopenzwave.so.1.6:_ZN9OpenZWave6StreamD1Ev
libopenzwave.so.1.6:_ZN9OpenZWave6StreamD2Ev
libopenzwave.so.1.6:_ZN9OpenZWave6Thread11IsSignalledEv
libopenzwave.so.1.6:_ZN9OpenZWave6Thread4StopEv
libopenzwave.so.1.6:_ZN9OpenZWave6Thread5SleepEj
libopenzwave.so.1.6:_ZN9OpenZWave6Thread5StartEPFvPNS_5EventEPvES3_
libopenzwave.so.1.6:_ZN9OpenZWave6ThreadC1ERKNSt7__cxx1112basic_stringIcSt11char_traitsIcESaIcEEE
libopenzwave.so.1.6:_ZN9OpenZWave6ThreadC2ERKNSt7__cxx1112basic_stringIcSt11char_traitsIcESaIcEEE
libopenzwave.so.1.6:_ZN9OpenZWave6ThreadD0Ev
libopenzwave.so.1.6:_ZN9OpenZWave6ThreadD1Ev
libopenzwave.so.1.6:_ZN9OpenZWave6ThreadD2Ev
libopenzwave.so.1.6:_ZN9OpenZWave6WakeUp10CreateVarsEh
libopenzwave.so.1.6:_ZN9OpenZWave6WakeUp10SetVersionEh
libopenzwave.so.1.6:_ZN9OpenZWave6WakeUp11SendPendingEv
libopenzwave.so.1.6:_ZN9OpenZWave6WakeUp12RequestStateEjhNS_6Driver8MsgQueueE
libopenzwave.so.1.6:_ZN9OpenZWave6WakeUp12RequestValueEjthNS_6Driver8MsgQueueE
libopenzwave.so.1.6:_ZN9OpenZWave6WakeUp14SendNoMoreInfoEj
libopenzwave.so.1.6:_ZN9OpenZWave6WakeUp4InitEv
libopenzwave.so.1.6:_ZN9OpenZWave6WakeUp6CreateEjh
libopenzwave.so.1.6:_ZN9OpenZWave6WakeUp8QueueMsgERKNS_6Driver12MsgQueueItemE
libopenzwave.so.1.6:_ZN9OpenZWave6WakeUp8SetAwakeEb
libopenzwave.so.1.6:_ZN9OpenZWave6WakeUp8SetValueERKNS_5ValueE
libopenzwave.so.1.6:_ZN9OpenZWave6WakeUp9HandleMsgEPKhjj
libopenzwave.so.1.6:_ZN9OpenZWave6WakeUpC1Ejh
libopenzwave.so.1.6:_ZN9OpenZWave6WakeUpC2Ejh
libopenzwave.so.1.6:_ZN9OpenZWave6WakeUpD0Ev
libopenzwave.so.1.6:_ZN9OpenZWave6WakeUpD1Ev
libopenzwave.so.1.6:_ZN9OpenZWave6WakeUpD2Ev
libopenzwave.so.1.6:_ZN9OpenZWave7Battery10CreateVarsEh
libopenzwave.so.1.6:_ZN9OpenZWave7Battery12RequestStateEjhNS_6Driver8MsgQueueE
libopenzwave.so.1.6:_ZN9OpenZWave7Battery12RequestValueEjthNS_6Driver8MsgQueueE
libopenzwave.so.1.6:_ZN9OpenZWave7Battery6CreateEjh
libopenzwave.so.1.6:_ZN9OpenZWave7Battery9HandleMsgEPKhjj
libopenzwave.so.1.6:_ZN9OpenZWave7DNSImpl9LookupTxTENSt7__cxx1112basic_stringIcSt11char_traitsIcESaIcEEERS6_
libopenzwave.so.1.6:_ZN9OpenZWave7DNSImplC1Ev
libopenzwave.so.1.6:_ZN9OpenZWave7DNSImplC2Ev
libopenzwave.so.1.6:_ZN9OpenZWave7DNSImplD0Ev
libopenzwave.so.1.6:_ZN9OpenZWave7DNSImplD1Ev
libopenzwave.so.1.6:_ZN9OpenZWave7DNSImplD2Ev
libopenzwave.so.1.6:_ZN9OpenZWave7FileOps10FileExistsERKNSt7__cxx1112basic_stringIcSt11char_traitsIcESaIcEEE
libopenzwave.so.1.6:_ZN9OpenZWave7FileOps10FileRotateERKNSt7__cxx1112basic_stringIcSt11char_traitsIcESaIcEEE
libopenzwave.so.1.6:_ZN9OpenZWave7FileOps12FolderCreateERKNSt7__cxx1112basic_stringIcSt11char_traitsIcESaIcEEE
libopenzwave.so.1.6:_ZN9OpenZWave7FileOps12FolderExistsERKNSt7__cxx1112basic_stringIcSt11char_traitsIcESaIcEEE
libopenzwave.so.1.6:_ZN9OpenZWave7FileOps13FileWriteableERKNSt7__cxx1112basic_stringIcSt11char_traitsIcESaIcEEE
libopenzwave.so.1.6:_ZN9OpenZWave7FileOps6CreateEv
libopenzwave.so.1.6:_ZN9OpenZWave7FileOps7DestroyEv
libopenzwave.so.1.6:_ZN9OpenZWave7FileOps8FileCopyERKNSt7__cxx1112basic_stringIcSt11char_traitsIcESaIcEEES8_
libopenzwave.so.1.6:_ZN9OpenZWave7FileOpsC1Ev
libopenzwave.so.1.6:_ZN9OpenZWave7FileOpsC2Ev
libopenzwave.so.1.6:_ZN9OpenZWave7FileOpsD1Ev
libopenzwave.so.1.6:_ZN9OpenZWave7FileOpsD2Ev
libopenzwave.so.1.6:_ZN9OpenZWave7LogImpl10QueueClearEv
libopenzwave.so.1.6:_ZN9OpenZWave7LogImpl11GetThreadIdB5cxx11Ev
libopenzwave.so.1.6:_ZN9OpenZWave7LogImpl12toEscapeCodeENS_8LogLevelE
libopenzwave.so.1.6:_ZN9OpenZWave7LogImpl13GetNodeStringB5cxx11Eh
libopenzwave.so.1.6:_ZN9OpenZWave7LogImpl14SetLogFileNameERKNSt7__cxx1112basic_stringIcSt11char_traitsIcESaIcEEE
libopenzwave.so.1.6:_ZN9OpenZWave7LogImpl15SetLoggingStateENS_8LogLevelES1_S1_
libopenzwave.so.1.6:_ZN9OpenZWave7LogImpl17GetLogLevelStringB5cxx11ENS_8LogLevelE
libopenzwave.so.1.6:_ZN9OpenZWave7LogImpl18GetTimeStampStringB5cxx11Ev
libopenzwave.so.1.6:_ZN9OpenZWave7LogImpl5QueueEPKc
libopenzwave.so.1.6:_ZN9OpenZWave7LogImpl5WriteENS_8LogLevelEhPKcP13__va_list_tag
libopenzwave.so.1.6:_ZN9OpenZWave7LogImpl9QueueDumpEv
libopenzwave.so.1.6:_ZN9OpenZWave7LogImplC1ERKNSt7__cxx1112basic_stringIcSt11char_traitsIcESaIcEEEbbNS_8LogLevelES9_S9_
libopenzwave.so.1.6:_ZN9OpenZWave7LogImplC2ERKNSt7__cxx1112basic_stringIcSt11char_traitsIcESaIcEEEbbNS_8LogLevelES9_S9_
libopenzwave.so.1.6:_ZN9OpenZWave7LogImplD0Ev
libopenzwave.so.1.6:_ZN9OpenZWave7LogImplD1Ev
libopenzwave.so.1.6:_ZN9OpenZWave7LogImplD2Ev
libopenzwave.so.1.6:_ZN9OpenZWave7Manager10AddWatcherEPFvPKNS_12NotificationEPvES4_
libopenzwave.so.1.6:_ZN9OpenZWave7Manager10EnablePollERKNS_7ValueIDEh
libopenzwave.so.1.6:_ZN9OpenZWave7Manager10GetBitMaskERKNS_7ValueIDEPi
libopenzwave.so.1.6:_ZN9OpenZWave7Manager10IsValueSetERKNS_7ValueIDE
libopenzwave.so.1.6:_ZN9OpenZWave7Manager10RemoveNodeEj
libopenzwave.so.1.6:_ZN9OpenZWave7Manager10SetBitMaskERKNS_7ValueIDEj
libopenzwave.so.1.6:_ZN9OpenZWave7Manager10SetNodeOffEjh
libopenzwave.so.1.6:_ZN9OpenZWave7Manager10getVersionEv
libopenzwave.so.1.6:_ZN9OpenZWave7Manager11CreateSceneEv
libopenzwave.so.1.6:_ZN9OpenZWave7Manager11DisablePollERKNS_7ValueIDE
libopenzwave.so.1.6:_ZN9OpenZWave7Manager11GetMetaDataB5cxx11EjhNS_4Node14MetaDataFieldsE
libopenzwave.so.1.6:_ZN9OpenZWave7Manager11GetNodeNameB5cxx11Ejh
libopenzwave.so.1.6:_ZN9OpenZWave7Manager11GetNodeRoleEjh
libopenzwave.so.1.6:_ZN9OpenZWave7Manager11GetNodeTypeB5cxx11Ejh
libopenzwave.so.1.6:_ZN9OpenZWave7Manager11GetValueMaxERKNS_7ValueIDE
libopenzwave.so.1.6:_ZN9OpenZWave7Manager11GetValueMinERKNS_7ValueIDE
libopenzwave.so.1.6:_ZN9OpenZWave7Manager11HealNetworkEjb
libopenzwave.so.1.6:_ZN9OpenZWave7Manager11IsNodeAwakeEjh
libopenzwave.so.1.6:_ZN9OpenZWave7Manager11PressButtonERKNS_7ValueIDE
libopenzwave.so.1.6:_ZN9OpenZWave7Manager11RemoveSceneEh
libopenzwave.so.1.6:_ZN9OpenZWave7Manager11SceneExistsEh
libopenzwave.so.1.6:_ZN9OpenZWave7Manager11SendRawDataEjhRKNSt7__cxx1112basic_stringIcSt11char_traitsIcESaIcEEEhbPKhh
libopenzwave.so.1.6:_ZN9OpenZWave7Manager11SetNodeNameEjhRKNSt7__cxx1112basic_stringIcSt11char_traitsIcESaIcEEE
libopenzwave.so.1.6:_ZN9OpenZWave7Manager11SwitchAllOnEj
libopenzwave.so.1.6:_ZN9OpenZWave7Manager11TestNetworkEjj
libopenzwave.so.1.6:_ZN9OpenZWave7Manager11WriteConfigEj
libopenzwave.so.1.6:_ZN9OpenZWave7Manager12CreateButtonEjhh
libopenzwave.so.1.6:_ZN9OpenZWave7Manager12DeleteButtonEjhh
libopenzwave.so.1.6:_ZN9OpenZWave7Manager12GetAllScenesEPPh
libopenzwave.so.1.6:_ZN9OpenZWave7Manager12GetChangeLogEjhj
libopenzwave.so.1.6:_ZN9OpenZWave7Manager12GetNodeBasicEjh
libopenzwave.so.1.6:_ZN9OpenZWave7Manager12GetNumGroupsEjh
libopenzwave.so.1.6:_ZN9OpenZWave7Manager12GetNumScenesEv
libopenzwave.so.1.6:_ZN9OpenZWave7Manager12GetSUCNodeIdEj
libopenzwave.so.1.6:_ZN9OpenZWave7Manager12GetValueHelpB5cxx11ERKNS_7ValueIDEi
libopenzwave.so.1.6:_ZN9OpenZWave7Manager12IsNodeFailedEjh
libopenzwave.so.1.6:_ZN9OpenZWave7Manager12RefreshValueERKNS_7ValueIDE
libopenzwave.so.1.6:_ZN9OpenZWave7Manager12RemoveDriverERKNSt7__cxx1112basic_stringIcSt11char_traitsIcESaIcEEE
libopenzwave.so.1.6:_ZN9OpenZWave7Manager12SetNodeLevelEjhh
libopenzwave.so.1.6:_ZN9OpenZWave7Manager12SetValueHelpERKNS_7ValueIDERKNSt7__cxx1112basic_stringIcSt11char_traitsIcESaIcEEEi
libopenzwave.so.1.6:_ZN9OpenZWave7Manager12SwitchAllOffEj
libopenzwave.so.1.6:_ZN9OpenZWave7Manager13ActivateSceneEh
libopenzwave.so.1.6:_ZN9OpenZWave7Manager13AddSceneValueEhRKNS_7ValueIDERKNSt7__cxx1112basic_stringIcSt11char_traitsIcESaIcEEE
libopenzwave.so.1.6:_ZN9OpenZWave7Manager13AddSceneValueEhRKNS_7ValueIDEb
libopenzwave.so.1.6:_ZN9OpenZWave7Manager13AddSceneValueEhRKNS_7ValueIDEf
libopenzwave.so.1.6:_ZN9OpenZWave7Manager13AddSceneValueEhRKNS_7ValueIDEh
libopenzwave.so.1.6:_ZN9OpenZWave7Manager13AddSceneValueEhRKNS_7ValueIDEi
libopenzwave.so.1.6:_ZN9OpenZWave7Manager13AddSceneValueEhRKNS_7ValueIDEs
libopenzwave.so.1.6:_ZN9OpenZWave7Manager13GetBitSetSizeERKNS_7ValueIDEPh
libopenzwave.so.1.6:_ZN9OpenZWave7Manager13GetGroupLabelB5cxx11Ejhh
libopenzwave.so.1.6:_ZN9OpenZWave7Manager13GetSceneLabelB5cxx11Eh
libopenzwave.so.1.6:_ZN9OpenZWave7Manager13GetValueAsIntERKNS_7ValueIDEPi
libopenzwave.so.1.6:_ZN9OpenZWave7Manager13GetValueAsRawERKNS_7ValueIDEPPhS4_
libopenzwave.so.1.6:_ZN9OpenZWave7Manager13GetValueLabelB5cxx11ERKNS_7ValueIDEi
libopenzwave.so.1.6:_ZN9OpenZWave7Manager13GetValueUnitsB5cxx11ERKNS_7ValueIDE
libopenzwave.so.1.6:_ZN9OpenZWave7Manager13HasNodeFailedEjh
libopenzwave.so.1.6:_ZN9OpenZWave7Manager13IsValuePolledERKNS_7ValueIDE
libopenzwave.so.1.6:_ZN9OpenZWave7Manager13ReleaseButtonERKNS_7ValueIDE
libopenzwave.so.1.6:_ZN9OpenZWave7Manager13RemoveWatcherEPFvPKNS_12NotificationEPvES4_
libopenzwave.so.1.6:_ZN9OpenZWave7Manager13SetSceneLabelEhRKNSt7__cxx1112basic_stringIcSt11char_traitsIcESaIcEEE
libopenzwave.so.1.6:_ZN9OpenZWave7Manager13SetSceneValueEhRKNS_7ValueIDERKNSt7__cxx1112basic_stringIcSt11char_traitsIcESaIcEEE
libopenzwave.so.1.6:_ZN9OpenZWave7Manager13SetSceneValueEhRKNS_7ValueIDEb
libopenzwave.so.1.6:_ZN9OpenZWave7Manager13SetSceneValueEhRKNS_7ValueIDEf
libopenzwave.so.1.6:_ZN9OpenZWave7Manager13SetSceneValueEhRKNS_7ValueIDEh
libopenzwave.so.1.6:_ZN9OpenZWave7Manager13SetSceneValueEhRKNS_7ValueIDEi
libopenzwave.so.1.6:_ZN9OpenZWave7Manager13SetSceneValueEhRKNS_7ValueIDEs
libopenzwave.so.1.6:_ZN9OpenZWave7Manager13SetValueLabelERKNS_7ValueIDERKNSt7__cxx1112basic_stringIcSt11char_traitsIcESaIcEEEi
libopenzwave.so.1.6:_ZN9OpenZWave7Manager13SetValueUnitsERKNS_7ValueIDERKNSt7__cxx1112basic_stringIcSt11char_traitsIcESaIcEEE
libopenzwave.so.1.6:_ZN9OpenZWave7Manager14AddAssociationEjhhhh
libopenzwave.so.1.6:_ZN9OpenZWave7Manager14GetNodeGenericEjh
libopenzwave.so.1.6:_ZN9OpenZWave7Manager14GetNodeVersionEjh
libopenzwave.so.1.6:_ZN9OpenZWave7Manager14GetSwitchPointERKNS_7ValueIDEhPhS4_Pa
libopenzwave.so.1.6:_ZN9OpenZWave7Manager14GetValueAsBoolERKNS_7ValueIDEPb
libopenzwave.so.1.6:_ZN9OpenZWave7Manager14GetValueAsByteERKNS_7ValueIDEPh
libopenzwave.so.1.6:_ZN9OpenZWave7Manager14NotifyWatchersEPNS_12NotificationE
libopenzwave.so.1.6:_ZN9OpenZWave7Manager14SceneGetValuesEhPSt6vectorINS_7ValueIDESaIS2_EE
libopenzwave.so.1.6:_ZN9OpenZWave7Manager14SetConfigParamEjhhih
libopenzwave.so.1.6:_ZN9OpenZWave7Manager14SetDriverReadyEPNS_6DriverEb
libopenzwave.so.1.6:_ZN9OpenZWave7Manager14SetSwitchPointERKNS_7ValueIDEhha
libopenzwave.so.1.6:_ZN9OpenZWave7Manager15GetAssociationsEjhhPPNS_19InstanceAssociationE
libopenzwave.so.1.6:_ZN9OpenZWave7Manager15GetAssociationsEjhhPPh
libopenzwave.so.1.6:_ZN9OpenZWave7Manager15GetNodeLocationB5cxx11Ejh
libopenzwave.so.1.6:_ZN9OpenZWave7Manager15GetNodePlusTypeEjh
libopenzwave.so.1.6:_ZN9OpenZWave7Manager15GetNodeSecurityEjh
libopenzwave.so.1.6:_ZN9OpenZWave7Manager15GetNodeSpecificEjh
libopenzwave.so.1.6:_ZN9OpenZWave7Manager15GetPollIntervalEv
libopenzwave.so.1.6:_ZN9OpenZWave7Manager15GetValueAsFloatERKNS_7ValueIDEPf
libopenzwave.so.1.6:_ZN9OpenZWave7Manager15GetValueAsShortERKNS_7ValueIDEPs
libopenzwave.so.1.6:_ZN9OpenZWave7Manager15HealNetworkNodeEjhb
libopenzwave.so.1.6:_ZN9OpenZWave7Manager15IsMultiInstanceEjhh
libopenzwave.so.1.6:_ZN9OpenZWave7Manager15IsNodeZWavePlusEjh
libopenzwave.so.1.6:_ZN9OpenZWave7Manager15IsValueReadOnlyERKNS_7ValueIDE
libopenzwave.so.1.6:_ZN9OpenZWave7Manager15RefreshNodeInfoEjh
libopenzwave.so.1.6:_ZN9OpenZWave7Manager15RemoveAllScenesEj
libopenzwave.so.1.6:_ZN9OpenZWave7Manager15ReplicationSendEjh
libopenzwave.so.1.6:_ZN9OpenZWave7Manager15ResetControllerEj
libopenzwave.so.1.6:_ZN9OpenZWave7Manager15SetNodeLocationEjhRKNSt7__cxx1112basic_stringIcSt11char_traitsIcESaIcEEE
libopenzwave.so.1.6:_ZN9OpenZWave7Manager15SetPollIntervalEib
libopenzwave.so.1.6:_ZN9OpenZWave7Manager15TestNetworkNodeEjhj
libopenzwave.so.1.6:_ZN9OpenZWave7Manager16CreateNewPrimaryEj
libopenzwave.so.1.6:_ZN9OpenZWave7Manager16GetInstanceLabelB5cxx11ERKNS_7ValueIDE
libopenzwave.so.1.6:_ZN9OpenZWave7Manager16GetInstanceLabelB5cxx11Ejhhh
libopenzwave.so.1.6:_ZN9OpenZWave7Manager16GetNodeNeighborsEjhPPh
libopenzwave.so.1.6:_ZN9OpenZWave7Manager16GetNodeProductIdB5cxx11Ejh
libopenzwave.so.1.6:_ZN9OpenZWave7Manager16GetPollIntensityERKNS_7ValueIDE
libopenzwave.so.1.6:_ZN9OpenZWave7Manager16GetValueAsBitSetERKNS_7ValueIDEhPb
libopenzwave.so.1.6:_ZN9OpenZWave7Manager16GetValueAsStringERKNS_7ValueIDEPNSt7__cxx1112basic_stringIcSt11char_traitsIcESaIcEEE
libopenzwave.so.1.6:_ZN9OpenZWave7Manager16IsValueWriteOnlyERKNS_7ValueIDE
libopenzwave.so.1.6:_ZN9OpenZWave7Manager16RemoveFailedNodeEjh
libopenzwave.so.1.6:_ZN9OpenZWave7Manager16RemoveSceneValueEhRKNS_7ValueIDE
libopenzwave.so.1.6:_ZN9OpenZWave7Manager16RequestNodeStateEjh
libopenzwave.so.1.6:_ZN9OpenZWave7Manager16SetPollIntensityERKNS_7ValueIDEh
libopenzwave.so.1.6:_ZN9OpenZWave7Manager17AssignReturnRouteEjh
libopenzwave.so.1.6:_ZN9OpenZWave7Manager17ClearSwitchPointsERKNS_7ValueIDE
libopenzwave.so.1.6:_ZN9OpenZWave7Manager17GetChangeVerifiedERKNS_7ValueIDE
libopenzwave.so.1.6:_ZN9OpenZWave7Manager17GetControllerPathB5cxx11Ej
libopenzwave.so.1.6:_ZN9OpenZWave7Manager17GetLibraryVersionB5cxx11Ej
libopenzwave.so.1.6:_ZN9OpenZWave7Manager17GetNodeDeviceTypeEjh
libopenzwave.so.1.6:_ZN9OpenZWave7Manager17GetNodeQueryStageB5cxx11Ejh
libopenzwave.so.1.6:_ZN9OpenZWave7Manager17GetNodeRoleStringB5cxx11Ejh
libopenzwave.so.1.6:_ZN9OpenZWave7Manager17GetNodeRouteSpeedB5cxx11EPNS_4Node8NodeDataE
libopenzwave.so.1.6:_ZN9OpenZWave7Manager17GetNodeStatisticsEjhPNS_4Node8NodeDataE
libopenzwave.so.1.6:_ZN9OpenZWave7Manager17GetSendQueueCountEj
libopenzwave.so.1.6:_ZN9OpenZWave7Manager17GetValueListItemsERKNS_7ValueIDEPSt6vectorINSt7__cxx1112basic_stringIcSt11char_traitsIcESaIcEEESaISA_EE
libopenzwave.so.1.6:_ZN9OpenZWave7Manager17RemoveAssociationEjhhhh
libopenzwave.so.1.6:_ZN9OpenZWave7Manager17RemoveSwitchPointERKNS_7ValueIDEhh
libopenzwave.so.1.6:_ZN9OpenZWave7Manager17ReplaceFailedNodeEjh
libopenzwave.so.1.6:_ZN9OpenZWave7Manager17SetChangeVerifiedERKNS_7ValueIDEb
libopenzwave.so.1.6:_ZN9OpenZWave7Manager18GetLibraryTypeNameB5cxx11Ej
libopenzwave.so.1.6:_ZN9OpenZWave7Manager18GetMaxAssociationsEjhh
libopenzwave.so.1.6:_ZN9OpenZWave7Manager18GetNodeMaxBaudRateEjh
libopenzwave.so.1.6:_ZN9OpenZWave7Manager18GetNodeProductNameB5cxx11Ejh
libopenzwave.so.1.6:_ZN9OpenZWave7Manager18GetNodeProductTypeB5cxx11Ejh
libopenzwave.so.1.6:_ZN9OpenZWave7Manager18GetNodeRouteSchemeB5cxx11EPNS_4Node8NodeDataE
libopenzwave.so.1.6:_ZN9OpenZWave7Manager18GetNumSwitchPointsERKNS_7ValueIDE
libopenzwave.so.1.6:_ZN9OpenZWave7Manager18GetValueListValuesERKNS_7ValueIDEPSt6vectorIiSaIiEE
libopenzwave.so.1.6:_ZN9OpenZWave7Manager18IsBridgeControllerEj
libopenzwave.so.1.6:_ZN9OpenZWave7Manager18IsNodeInfoReceivedEjh
libopenzwave.so.1.6:_ZN9OpenZWave7Manager18RequestConfigParamEjhh
libopenzwave.so.1.6:_ZN9OpenZWave7Manager18RequestNodeDynamicEjh
libopenzwave.so.1.6:_ZN9OpenZWave7Manager18SceneGetValueAsIntEhRKNS_7ValueIDEPi
libopenzwave.so.1.6:_ZN9OpenZWave7Manager18SetNodeProductNameEjhRKNSt7__cxx1112basic_stringIcSt11char_traitsIcESaIcEEE
libopenzwave.so.1.6:_ZN9OpenZWave7Manager18getVersionAsStringB5cxx11Ev
libopenzwave.so.1.6:_ZN9OpenZWave7Manager19GetControllerNodeIdEj
libopenzwave.so.1.6:_ZN9OpenZWave7Manager19GetDriverStatisticsEjPNS_6Driver10DriverDataE
libopenzwave.so.1.6:_ZN9OpenZWave7Manager19HasExtendedTxStatusEj
libopenzwave.so.1.6:_ZN9OpenZWave7Manager19IsNodeBeamingDeviceEjh
libopenzwave.so.1.6:_ZN9OpenZWave7Manager19IsNodeRoutingDeviceEjh
libopenzwave.so.1.6:_ZN9OpenZWave7Manager19IsPrimaryControllerEj
libopenzwave.so.1.6:_ZN9OpenZWave7Manager19LogDriverStatisticsEj
libopenzwave.so.1.6:_ZN9OpenZWave7Manager19SceneGetValueAsBoolEhRKNS_7ValueIDEPb
libopenzwave.so.1.6:_ZN9OpenZWave7Manager19SceneGetValueAsByteEhRKNS_7ValueIDEPh
libopenzwave.so.1.6:_ZN9OpenZWave7Manager19SendNodeInformationEjh
libopenzwave.so.1.6:_ZN9OpenZWave7Manager19TransferPrimaryRoleEj
libopenzwave.so.1.6:_ZN9OpenZWave7Manager20IsNodeSecurityDeviceEjh
libopenzwave.so.1.6:_ZN9OpenZWave7Manager20ReceiveConfigurationEj
libopenzwave.so.1.6:_ZN9OpenZWave7Manager20RequestNetworkUpdateEjh
libopenzwave.so.1.6:_ZN9OpenZWave7Manager20SceneGetValueAsFloatEhRKNS_7ValueIDEPf
libopenzwave.so.1.6:_ZN9OpenZWave7Manager20SceneGetValueAsShortEhRKNS_7ValueIDEPs
libopenzwave.so.1.6:_ZN9OpenZWave7Manager21DeleteAllReturnRoutesEjh
libopenzwave.so.1.6:_ZN9OpenZWave7Manager21GetNodeManufacturerIdB5cxx11Ejh
libopenzwave.so.1.6:_ZN9OpenZWave7Manager21GetNodePlusTypeStringB5cxx11Ejh
libopenzwave.so.1.6:_ZN9OpenZWave7Manager21GetValueListSelectionERKNS_7ValueIDEPNSt7__cxx1112basic_stringIcSt11char_traitsIcESaIcEEE
libopenzwave.so.1.6:_ZN9OpenZWave7Manager21GetValueListSelectionERKNS_7ValueIDEPi
libopenzwave.so.1.6:_ZN9OpenZWave7Manager21IsNodeListeningDeviceEjh
libopenzwave.so.1.6:_ZN9OpenZWave7Manager21SceneGetValueAsStringEhRKNS_7ValueIDEPNSt7__cxx1112basic_stringIcSt11char_traitsIcESaIcEEE
libopenzwave.so.1.6:_ZN9OpenZWave7Manager21SetValueListSelectionERKNS_7ValueIDERKNSt7__cxx1112basic_stringIcSt11char_traitsIcESaIcEEE
libopenzwave.so.1.6:_ZN9OpenZWave7Manager22BeginControllerCommandEjNS_6Driver17ControllerCommandEPFvNS1_15ControllerStateENS1_15ControllerErrorEPvES5_bhh
libopenzwave.so.1.6:_ZN9OpenZWave7Manager22GetValueFloatPrecisionERKNS_7ValueIDEPh
libopenzwave.so.1.6:_ZN9OpenZWave7Manager22RequestAllConfigParamsEjh
libopenzwave.so.1.6:_ZN9OpenZWave7Manager22checkLatestMFSRevisionEj
libopenzwave.so.1.6:_ZN9OpenZWave7Manager22getVersionLongAsStringB5cxx11Ev
libopenzwave.so.1.6:_ZN9OpenZWave7Manager23CancelControllerCommandEj
libopenzwave.so.1.6:_ZN9OpenZWave7Manager23GetNodeClassInformationEjhhPNSt7__cxx1112basic_stringIcSt11char_traitsIcESaIcEEEPh
libopenzwave.so.1.6:_ZN9OpenZWave7Manager23GetNodeDeviceTypeStringB5cxx11Ejh
libopenzwave.so.1.6:_ZN9OpenZWave7Manager23GetNodeManufacturerNameB5cxx11Ejh
libopenzwave.so.1.6:_ZN9OpenZWave7Manager23SetNodeManufacturerNameEjhRKNSt7__cxx1112basic_stringIcSt11char_traitsIcESaIcEEE
libopenzwave.so.1.6:_ZN9OpenZWave7Manager24IsStaticUpdateControllerEj
libopenzwave.so.1.6:_ZN9OpenZWave7Manager25RequestNodeNeighborUpdateEjh
libopenzwave.so.1.6:_ZN9OpenZWave7Manager25downloadLatestMFSRevisionEj
libopenzwave.so.1.6:_ZN9OpenZWave7Manager26AddSceneValueListSelectionEhRKNS_7ValueIDERKNSt7__cxx1112basic_stringIcSt11char_traitsIcESaIcEEE
libopenzwave.so.1.6:_ZN9OpenZWave7Manager26AddSceneValueListSelectionEhRKNS_7ValueIDEi
libopenzwave.so.1.6:_ZN9OpenZWave7Manager26GetControllerInterfaceTypeEj
libopenzwave.so.1.6:_ZN9OpenZWave7Manager26SceneGetValueListSelectionEhRKNS_7ValueIDEPNSt7__cxx1112basic_stringIcSt11char_traitsIcESaIcEEE
libopenzwave.so.1.6:_ZN9OpenZWave7Manager26SceneGetValueListSelectionEhRKNS_7ValueIDEPi
libopenzwave.so.1.6:_ZN9OpenZWave7Manager26SetSceneValueListSelectionEhRKNS_7ValueIDERKNSt7__cxx1112basic_stringIcSt11char_traitsIcESaIcEEE
libopenzwave.so.1.6:_ZN9OpenZWave7Manager26SetSceneValueListSelectionEhRKNS_7ValueIDEi
libopenzwave.so.1.6:_ZN9OpenZWave7Manager29IsNodeFrequentListeningDeviceEjh
libopenzwave.so.1.6:_ZN9OpenZWave7Manager29checkLatestConfigFileRevisionEjh
libopenzwave.so.1.6:_ZN9OpenZWave7Manager32downloadLatestConfigFileRevisionEjh
libopenzwave.so.1.6:_ZN9OpenZWave7Manager6CreateEv
libopenzwave.so.1.6:_ZN9OpenZWave7Manager7AddNodeEjb
libopenzwave.so.1.6:_ZN9OpenZWave7Manager7DestroyEv
libopenzwave.so.1.6:_ZN9OpenZWave7Manager8SetValueERKNS_7ValueIDEPKhh
libopenzwave.so.1.6:_ZN9OpenZWave7Manager8SetValueERKNS_7ValueIDERKNSt7__cxx1112basic_stringIcSt11char_traitsIcESaIcEEE
libopenzwave.so.1.6:_ZN9OpenZWave7Manager8SetValueERKNS_7ValueIDEb
libopenzwave.so.1.6:_ZN9OpenZWave7Manager8SetValueERKNS_7ValueIDEf
libopenzwave.so.1.6:_ZN9OpenZWave7Manager8SetValueERKNS_7ValueIDEh
libopenzwave.so.1.6:_ZN9OpenZWave7Manager8SetValueERKNS_7ValueIDEhb
libopenzwave.so.1.6:_ZN9OpenZWave7Manager8SetValueERKNS_7ValueIDEi
libopenzwave.so.1.6:_ZN9OpenZWave7Manager8SetValueERKNS_7ValueIDEs
libopenzwave.so.1.6:_ZN9OpenZWave7Manager8isPolledERKNS_7ValueIDE
libopenzwave.so.1.6:_ZN9OpenZWave7Manager9AddDriverERKNSt7__cxx1112basic_stringIcSt11char_traitsIcESaIcEEERKNS_6Driver19ControllerInterfaceE
libopenzwave.so.1.6:_ZN9OpenZWave7Manager9GetDriverEj
libopenzwave.so.1.6:_ZN9OpenZWave7Manager9SetNodeOnEjh
libopenzwave.so.1.6:_ZN9OpenZWave7Manager9SoftResetEj
libopenzwave.so.1.6:_ZN9OpenZWave7ManagerC1Ev
libopenzwave.so.1.6:_ZN9OpenZWave7ManagerC2Ev
libopenzwave.so.1.6:_ZN9OpenZWave7ManagerD0Ev
libopenzwave.so.1.6:_ZN9OpenZWave7ManagerD1Ev
libopenzwave.so.1.6:_ZN9OpenZWave7ManagerD2Ev
libopenzwave.so.1.6:_ZN9OpenZWave7Options12AddOptionIntERKNSt7__cxx1112basic_stringIcSt11char_traitsIcESaIcEEEi
libopenzwave.so.1.6:_ZN9OpenZWave7Options13AddOptionBoolERKNSt7__cxx1112basic_stringIcSt11char_traitsIcESaIcEEEb
libopenzwave.so.1.6:_ZN9OpenZWave7Options13GetOptionTypeERKNSt7__cxx1112basic_stringIcSt11char_traitsIcESaIcEEE
libopenzwave.so.1.6:_ZN9OpenZWave7Options14GetOptionAsIntERKNSt7__cxx1112basic_stringIcSt11char_traitsIcESaIcEEEPi
libopenzwave.so.1.6:_ZN9OpenZWave7Options15AddOptionStringERKNSt7__cxx1112basic_stringIcSt11char_traitsIcESaIcEEES8_b
libopenzwave.so.1.6:_ZN9OpenZWave7Options15GetOptionAsBoolERKNSt7__cxx1112basic_stringIcSt11char_traitsIcESaIcEEEPb
libopenzwave.so.1.6:_ZN9OpenZWave7Options15ParseOptionsXMLERKNSt7__cxx1112basic_stringIcSt11char_traitsIcESaIcEEE
libopenzwave.so.1.6:_ZN9OpenZWave7Options17GetOptionAsStringERKNSt7__cxx1112basic_stringIcSt11char_traitsIcESaIcEEEPS6_
libopenzwave.so.1.6:_ZN9OpenZWave7Options18ParseOptionsStringERKNSt7__cxx1112basic_stringIcSt11char_traitsIcESaIcEEE
libopenzwave.so.1.6:_ZN9OpenZWave7Options4FindERKNSt7__cxx1112basic_stringIcSt11char_traitsIcESaIcEEE
libopenzwave.so.1.6:_ZN9OpenZWave7Options4LockEv
libopenzwave.so.1.6:_ZN9OpenZWave7Options6CreateERKNSt7__cxx1112basic_stringIcSt11char_traitsIcESaIcEEES8_S8_
libopenzwave.so.1.6:_ZN9OpenZWave7Options6Option18SetValueFromStringERKNSt7__cxx1112basic_stringIcSt11char_traitsIcESaIcEEE
libopenzwave.so.1.6:_ZN9OpenZWave7Options7DestroyEv
libopenzwave.so.1.6:_ZN9OpenZWave7Options9AddOptionERKNSt7__cxx1112basic_stringIcSt11char_traitsIcESaIcEEE
libopenzwave.so.1.6:_ZN9OpenZWave7OptionsC1ERKNSt7__cxx1112basic_stringIcSt11char_traitsIcESaIcEEES8_S8_
libopenzwave.so.1.6:_ZN9OpenZWave7OptionsC2ERKNSt7__cxx1112basic_stringIcSt11char_traitsIcESaIcEEES8_S8_
libopenzwave.so.1.6:_ZN9OpenZWave7OptionsD1Ev
libopenzwave.so.1.6:_ZN9OpenZWave7OptionsD2Ev
libopenzwave.so.1.6:_ZN9OpenZWave7ToLowerERKNSt7__cxx1112basic_stringIcSt11char_traitsIcESaIcEEE
libopenzwave.so.1.6:_ZN9OpenZWave7ToUpperERKNSt7__cxx1112basic_stringIcSt11char_traitsIcESaIcEEE
libopenzwave.so.1.6:_ZN9OpenZWave7Version10CreateVarsEh
libopenzwave.so.1.6:_ZN9OpenZWave7Version12RequestStateEjhNS_6Driver8MsgQueueE
libopenzwave.so.1.6:_ZN9OpenZWave7Version12RequestValueEjthNS_6Driver8MsgQueueE
libopenzwave.so.1.6:_ZN9OpenZWave7Version26RequestCommandClassVersionEPKNS_12CommandClassE
libopenzwave.so.1.6:_ZN9OpenZWave7Version6CreateEjh
libopenzwave.so.1.6:_ZN9OpenZWave7Version9HandleMsgEPKhjj
libopenzwave.so.1.6:_ZN9OpenZWave7VersionC1Ejh
libopenzwave.so.1.6:_ZN9OpenZWave7VersionC2Ejh
libopenzwave.so.1.6:_ZN9OpenZWave8Bitfield3SetEh
libopenzwave.so.1.6:_ZN9OpenZWave8Bitfield5ClearEh
libopenzwave.so.1.6:_ZN9OpenZWave8Bitfield8Iterator10NextSetBitEv
libopenzwave.so.1.6:_ZN9OpenZWave8Bitfield8IteratorC1EPKS0_j
libopenzwave.so.1.6:_ZN9OpenZWave8Bitfield8IteratorC2EPKS0_j
libopenzwave.so.1.6:_ZN9OpenZWave8Bitfield8IteratoreqERKS1_
libopenzwave.so.1.6:_ZN9OpenZWave8Bitfield8IteratorneERKS1_
libopenzwave.so.1.6:_ZN9OpenZWave8Bitfield8IteratorppEi
libopenzwave.so.1.6:_ZN9OpenZWave8Bitfield8IteratorppEv
libopenzwave.so.1.6:_ZN9OpenZWave8Bitfield8SetValueEj
libopenzwave.so.1.6:_ZN9OpenZWave8BitfieldC1Ej
libopenzwave.so.1.6:_ZN9OpenZWave8BitfieldC1Ev
libopenzwave.so.1.6:_ZN9OpenZWave8BitfieldC2Ej
libopenzwave.so.1.6:_ZN9OpenZWave8BitfieldC2Ev
libopenzwave.so.1.6:_ZN9OpenZWave8BitfieldD1Ev
libopenzwave.so.1.6:_ZN9OpenZWave8BitfieldD2Ev
libopenzwave.so.1.6:_ZN9OpenZWave8DoorLock10CreateVarsEh
libopenzwave.so.1.6:_ZN9OpenZWave8DoorLock12RequestStateEjhNS_6Driver8MsgQueueE
libopenzwave.so.1.6:_ZN9OpenZWave8DoorLock12RequestValueEjthNS_6Driver8MsgQueueE
libopenzwave.so.1.6:_ZN9OpenZWave8DoorLock13SetValueBasicEhh
libopenzwave.so.1.6:_ZN9OpenZWave8DoorLock6CreateEjh
libopenzwave.so.1.6:_ZN9OpenZWave8DoorLock8SetValueERKNS_5ValueE
libopenzwave.so.1.6:_ZN9OpenZWave8DoorLock9HandleMsgEPKhjj
libopenzwave.so.1.6:_ZN9OpenZWave8DoorLockC1Ejh
libopenzwave.so.1.6:_ZN9OpenZWave8DoorLockC2Ejh
libopenzwave.so.1.6:_ZN9OpenZWave8Language10CreateVarsEh
libopenzwave.so.1.6:_ZN9OpenZWave8Language12RequestStateEjhNS_6Driver8MsgQueueE
libopenzwave.so.1.6:_ZN9OpenZWave8Language12RequestValueEjthNS_6Driver8MsgQueueE
libopenzwave.so.1.6:_ZN9OpenZWave8Language6CreateEjh
libopenzwave.so.1.6:_ZN9OpenZWave8Language9HandleMsgEPKhjj
libopenzwave.so.1.6:_ZN9OpenZWave8MultiCmd6CreateEjh
libopenzwave.so.1.6:_ZN9OpenZWave8MultiCmd9HandleMsgEPKhjj
libopenzwave.so.1.6:_ZN9OpenZWave8PrintHexENSt7__cxx1112basic_stringIcSt11char_traitsIcESaIcEEEPKhj
libopenzwave.so.1.6:_ZN9OpenZWave8Security10CreateVarsEh
libopenzwave.so.1.6:_ZN9OpenZWave8Security12RequestStateEjhNS_6Driver8MsgQueueE
libopenzwave.so.1.6:_ZN9OpenZWave8Security12RequestValueEjthNS_6Driver8MsgQueueE
libopenzwave.so.1.6:_ZN9OpenZWave8Security19ExchangeNetworkKeysEv
libopenzwave.so.1.6:_ZN9OpenZWave8Security21HandleSupportedReportEPKhjj
libopenzwave.so.1.6:_ZN9OpenZWave8Security4InitEj
libopenzwave.so.1.6:_ZN9OpenZWave8Security6CreateEjh
libopenzwave.so.1.6:_ZN9OpenZWave8Security9HandleMsgEPKhjj
libopenzwave.so.1.6:_ZN9OpenZWave8SecurityC1Ejh
libopenzwave.so.1.6:_ZN9OpenZWave8SecurityC2Ejh
libopenzwave.so.1.6:_ZN9OpenZWave8SecurityD0Ev
libopenzwave.so.1.6:_ZN9OpenZWave8SecurityD1Ev
libopenzwave.so.1.6:_ZN9OpenZWave8SecurityD2Ev
libopenzwave.so.1.6:_ZN9OpenZWave8SimpleAV10CreateVarsEh
libopenzwave.so.1.6:_ZN9OpenZWave8SimpleAV6CreateEjh
libopenzwave.so.1.6:_ZN9OpenZWave8SimpleAV8SetValueERKNS_5ValueE
libopenzwave.so.1.6:_ZN9OpenZWave8SimpleAV9HandleMsgEPKhjj
libopenzwave.so.1.6:_ZN9OpenZWave8UserCode10CreateVarsEh
libopenzwave.so.1.6:_ZN9OpenZWave8UserCode12RequestStateEjhNS_6Driver8MsgQueueE
libopenzwave.so.1.6:_ZN9OpenZWave8UserCode12RequestValueEjthNS_6Driver8MsgQueueE
libopenzwave.so.1.6:_ZN9OpenZWave8UserCode6CreateEjh
libopenzwave.so.1.6:_ZN9OpenZWave8UserCode8SetValueERKNS_5ValueE
libopenzwave.so.1.6:_ZN9OpenZWave8UserCode9HandleMsgEPKhjj
libopenzwave.so.1.6:_ZN9OpenZWave8UserCodeC1Ejh
libopenzwave.so.1.6:_ZN9OpenZWave8UserCodeC2Ejh
libopenzwave.so.1.6:_ZN9OpenZWave8ValueInt13SetFromStringERKNSt7__cxx1112basic_stringIcSt11char_traitsIcESaIcEEE
libopenzwave.so.1.6:_ZN9OpenZWave8ValueInt16OnValueRefreshedEi
libopenzwave.so.1.6:_ZN9OpenZWave8ValueInt3SetEi
libopenzwave.so.1.6:_ZN9OpenZWave8ValueInt7ReadXMLEjhhPK12TiXmlElement
libopenzwave.so.1.6:_ZN9OpenZWave8ValueInt8WriteXMLEP12TiXmlElement
libopenzwave.so.1.6:_ZN9OpenZWave8ValueIntC1EjhNS_7ValueID10ValueGenreEhhtRKNSt7__cxx1112basic_stringIcSt11char_traitsIcESaIcEEESA_bbih
libopenzwave.so.1.6:_ZN9OpenZWave8ValueIntC1Ev
libopenzwave.so.1.6:_ZN9OpenZWave8ValueIntC2EjhNS_7ValueID10ValueGenreEhhtRKNSt7__cxx1112basic_stringIcSt11char_traitsIcESaIcEEESA_bbih
libopenzwave.so.1.6:_ZN9OpenZWave8ValueIntC2Ev
libopenzwave.so.1.6:_ZN9OpenZWave8ValueRaw13SetFromStringERKNSt7__cxx1112basic_stringIcSt11char_traitsIcESaIcEEE
libopenzwave.so.1.6:_ZN9OpenZWave8ValueRaw16OnValueRefreshedEPKhh
libopenzwave.so.1.6:_ZN9OpenZWave8ValueRaw3SetEPKhh
libopenzwave.so.1.6:_ZN9OpenZWave8ValueRaw7ReadXMLEjhhPK12TiXmlElement
libopenzwave.so.1.6:_ZN9OpenZWave8ValueRaw8WriteXMLEP12TiXmlElement
libopenzwave.so.1.6:_ZN9OpenZWave8ValueRawC1EjhNS_7ValueID10ValueGenreEhhtRKNSt7__cxx1112basic_stringIcSt11char_traitsIcESaIcEEESA_bbPKhhh
libopenzwave.so.1.6:_ZN9OpenZWave8ValueRawC1Ev
libopenzwave.so.1.6:_ZN9OpenZWave8ValueRawC2EjhNS_7ValueID10ValueGenreEhhtRKNSt7__cxx1112basic_stringIcSt11char_traitsIcESaIcEEESA_bbPKhhh
libopenzwave.so.1.6:_ZN9OpenZWave8ValueRawC2Ev
libopenzwave.so.1.6:_ZN9OpenZWave8ValueRawD0Ev
libopenzwave.so.1.6:_ZN9OpenZWave8ValueRawD1Ev
libopenzwave.so.1.6:_ZN9OpenZWave8ValueRawD2Ev
libopenzwave.so.1.6:_ZN9OpenZWave8WaitImpl10AddWatcherEPFvPvES1_
libopenzwave.so.1.6:_ZN9OpenZWave8WaitImpl13RemoveWatcherEPFvPvES1_
libopenzwave.so.1.6:_ZN9OpenZWave8WaitImpl6NotifyEv
libopenzwave.so.1.6:_ZN9OpenZWave8WaitImplC1EPNS_4WaitE
libopenzwave.so.1.6:_ZN9OpenZWave8WaitImplC2EPNS_4WaitE
libopenzwave.so.1.6:_ZN9OpenZWave8WaitImplD0Ev
libopenzwave.so.1.6:_ZN9OpenZWave8WaitImplD1Ev
libopenzwave.so.1.6:_ZN9OpenZWave8WaitImplD2Ev
libopenzwave.so.1.6:_ZN9OpenZWave9DNSThread11sendRequestEPNS_9DNSLookupE
libopenzwave.so.1.6:_ZN9OpenZWave9DNSThread13DNSThreadProcEPNS_5EventE
libopenzwave.so.1.6:_ZN9OpenZWave9DNSThread13processResultEv
libopenzwave.so.1.6:_ZN9OpenZWave9DNSThread19DNSThreadEntryPointEPNS_5EventEPv
libopenzwave.so.1.6:_ZN9OpenZWave9DNSThreadC1EPNS_6DriverE
libopenzwave.so.1.6:_ZN9OpenZWave9DNSThreadC2EPNS_6DriverE
libopenzwave.so.1.6:_ZN9OpenZWave9DNSThreadD0Ev
libopenzwave.so.1.6:_ZN9OpenZWave9DNSThreadD1Ev
libopenzwave.so.1.6:_ZN9OpenZWave9DNSThreadD2Ev
libopenzwave.so.1.6:_ZN9OpenZWave9EventImpl11IsSignalledEv
libopenzwave.so.1.6:_ZN9OpenZWave9EventImpl3SetEv
libopenzwave.so.1.6:_ZN9OpenZWave9EventImpl4WaitEi
libopenzwave.so.1.6:_ZN9OpenZWave9EventImpl5ResetEv
libopenzwave.so.1.6:_ZN9OpenZWave9EventImplC1Ev
libopenzwave.so.1.6:_ZN9OpenZWave9EventImplC2Ev
libopenzwave.so.1.6:_ZN9OpenZWave9EventImplD1Ev
libopenzwave.so.1.6:_ZN9OpenZWave9EventImplD2Ev
libopenzwave.so.1.6:_ZN9OpenZWave9Indicator10CreateVarsEh
libopenzwave.so.1.6:_ZN9OpenZWave9Indicator12RequestStateEjhNS_6Driver8MsgQueueE
libopenzwave.so.1.6:_ZN9OpenZWave9Indicator12RequestValueEjthNS_6Driver8MsgQueueE
libopenzwave.so.1.6:_ZN9OpenZWave9Indicator6CreateEjh
libopenzwave.so.1.6:_ZN9OpenZWave9Indicator8SetValueERKNS_5ValueE
libopenzwave.so.1.6:_ZN9OpenZWave9Indicator9HandleMsgEPKhjj
libopenzwave.so.1.6:_ZN9OpenZWave9MutexImpl11IsSignalledEv
libopenzwave.so.1.6:_ZN9OpenZWave9MutexImpl4LockEb
libopenzwave.so.1.6:_ZN9OpenZWave9MutexImpl6UnlockEv
libopenzwave.so.1.6:_ZN9OpenZWave9MutexImplC1Ev
libopenzwave.so.1.6:_ZN9OpenZWave9MutexImplC2Ev
libopenzwave.so.1.6:_ZN9OpenZWave9MutexImplD1Ev
libopenzwave.so.1.6:_ZN9OpenZWave9MutexImplD2Ev
libopenzwave.so.1.6:_ZN9OpenZWave9SwitchAll10CreateVarsEh
libopenzwave.so.1.6:_ZN9OpenZWave9SwitchAll12RequestStateEjhNS_6Driver8MsgQueueE
libopenzwave.so.1.6:_ZN9OpenZWave9SwitchAll12RequestValueEjthNS_6Driver8MsgQueueE
libopenzwave.so.1.6:_ZN9OpenZWave9SwitchAll2OnEPNS_6DriverEh
libopenzwave.so.1.6:_ZN9OpenZWave9SwitchAll3OffEPNS_6DriverEh
libopenzwave.so.1.6:_ZN9OpenZWave9SwitchAll6CreateEjh
libopenzwave.so.1.6:_ZN9OpenZWave9SwitchAll8SetValueERKNS_5ValueE
libopenzwave.so.1.6:_ZN9OpenZWave9SwitchAll9HandleMsgEPKhjj
libopenzwave.so.1.6:_ZN9OpenZWave9TimeStamp11GetAsStringB5cxx11Ev
libopenzwave.so.1.6:_ZN9OpenZWave9TimeStamp13TimeRemainingEv
libopenzwave.so.1.6:_ZN9OpenZWave9TimeStamp7SetTimeEi
libopenzwave.so.1.6:_ZN9OpenZWave9TimeStampC1Ev
libopenzwave.so.1.6:_ZN9OpenZWave9TimeStampC2Ev
libopenzwave.so.1.6:_ZN9OpenZWave9TimeStampD1Ev
libopenzwave.so.1.6:_ZN9OpenZWave9TimeStampD2Ev
libopenzwave.so.1.6:_ZN9OpenZWave9TimeStampmiERKS0_
libopenzwave.so.1.6:_ZN9OpenZWave9ValueBool13SetFromStringERKNSt7__cxx1112basic_stringIcSt11char_traitsIcESaIcEEE
libopenzwave.so.1.6:_ZN9OpenZWave9ValueBool16OnValueRefreshedEb
libopenzwave.so.1.6:_ZN9OpenZWave9ValueBool3SetEb
libopenzwave.so.1.6:_ZN9OpenZWave9ValueBool7ReadXMLEjhhPK12TiXmlElement
libopenzwave.so.1.6:_ZN9OpenZWave9ValueBool8WriteXMLEP12TiXmlElement
libopenzwave.so.1.6:_ZN9OpenZWave9ValueBoolC1EjhNS_7ValueID10ValueGenreEhhtRKNSt7__cxx1112basic_stringIcSt11char_traitsIcESaIcEEESA_bbbh
libopenzwave.so.1.6:_ZN9OpenZWave9ValueBoolC2EjhNS_7ValueID10ValueGenreEhhtRKNSt7__cxx1112basic_stringIcSt11char_traitsIcESaIcEEESA_bbbh
libopenzwave.so.1.6:_ZN9OpenZWave9ValueByte13SetFromStringERKNSt7__cxx1112basic_stringIcSt11char_traitsIcESaIcEEE
libopenzwave.so.1.6:_ZN9OpenZWave9ValueByte16OnValueRefreshedEh
libopenzwave.so.1.6:_ZN9OpenZWave9ValueByte3SetEh
libopenzwave.so.1.6:_ZN9OpenZWave9ValueByte7ReadXMLEjhhPK12TiXmlElement
libopenzwave.so.1.6:_ZN9OpenZWave9ValueByte8WriteXMLEP12TiXmlElement
libopenzwave.so.1.6:_ZN9OpenZWave9ValueByteC1EjhNS_7ValueID10ValueGenreEhhtRKNSt7__cxx1112basic_stringIcSt11char_traitsIcESaIcEEESA_bbhh
libopenzwave.so.1.6:_ZN9OpenZWave9ValueByteC1Ev
libopenzwave.so.1.6:_ZN9OpenZWave9ValueByteC2EjhNS_7ValueID10ValueGenreEhhtRKNSt7__cxx1112basic_stringIcSt11char_traitsIcESaIcEEESA_bbhh
libopenzwave.so.1.6:_ZN9OpenZWave9ValueByteC2Ev
libopenzwave.so.1.6:_ZN9OpenZWave9ValueList10SetByLabelERKNSt7__cxx1112basic_stringIcSt11char_traitsIcESaIcEEE
libopenzwave.so.1.6:_ZN9OpenZWave9ValueList10SetByValueEi
libopenzwave.so.1.6:_ZN9OpenZWave9ValueList13GetItemLabelsEPSt6vectorINSt7__cxx1112basic_stringIcSt11char_traitsIcESaIcEEESaIS7_EE
libopenzwave.so.1.6:_ZN9OpenZWave9ValueList13GetItemValuesEPSt6vectorIiSaIiEE
libopenzwave.so.1.6:_ZN9OpenZWave9ValueList16OnValueRefreshedEi
libopenzwave.so.1.6:_ZN9OpenZWave9ValueList7ReadXMLEjhhPK12TiXmlElement
libopenzwave.so.1.6:_ZN9OpenZWave9ValueList8WriteXMLEP12TiXmlElement
libopenzwave.so.1.6:_ZN9OpenZWave9ValueListC1EjhNS_7ValueID10ValueGenreEhhtRKNSt7__cxx1112basic_stringIcSt11char_traitsIcESaIcEEESA_bbRKSt6vectorINS0_4ItemESaISC_EEihh
libopenzwave.so.1.6:_ZN9OpenZWave9ValueListC1Ev
libopenzwave.so.1.6:_ZN9OpenZWave9ValueListC2EjhNS_7ValueID10ValueGenreEhhtRKNSt7__cxx1112basic_stringIcSt11char_traitsIcESaIcEEESA_bbRKSt6vectorINS0_4ItemESaISC_EEihh
libopenzwave.so.1.6:_ZN9OpenZWave9ValueListC2Ev
libopenzwave.so.1.6:_ZN9TiXmlBase10IsAlphaNumEh13TiXmlEncoding
libopenzwave.so.1.6:_ZN9TiXmlBase11StringEqualEPKcS1_b13TiXmlEncoding
libopenzwave.so.1.6:_ZN9TiXmlBase12EncodeStringERK11TiXmlStringPS0_
libopenzwave.so.1.6:_ZN9TiXmlBase14SkipWhiteSpaceEPKc13TiXmlEncoding
libopenzwave.so.1.6:_ZN9TiXmlBase18ConvertUTF32ToUTF8EmPcPi
libopenzwave.so.1.6:_ZN9TiXmlBase7IsAlphaEh13TiXmlEncoding
libopenzwave.so.1.6:_ZN9TiXmlBase8ReadNameEPKcP11TiXmlString13TiXmlEncoding
libopenzwave.so.1.6:_ZN9TiXmlBase8ReadTextEPKcP11TiXmlStringbS1_b13TiXmlEncoding
libopenzwave.so.1.6:_ZN9TiXmlBase9GetEntityEPKcPcPi13TiXmlEncoding
libopenzwave.so.1.6:_ZN9TiXmlNode11RemoveChildEPS_
libopenzwave.so.1.6:_ZN9TiXmlNode12LinkEndChildEPS_
libopenzwave.so.1.6:_ZN9TiXmlNode12ReplaceChildEPS_RKS_
libopenzwave.so.1.6:_ZN9TiXmlNode14InsertEndChildERKS_
libopenzwave.so.1.6:_ZN9TiXmlNode16InsertAfterChildEPS_RKS_
libopenzwave.so.1.6:_ZN9TiXmlNode17InsertBeforeChildEPS_RKS_
libopenzwave.so.1.6:_ZN9TiXmlNode5ClearEv
libopenzwave.so.1.6:_ZN9TiXmlNode8IdentifyEPKc13TiXmlEncoding
libopenzwave.so.1.6:_ZN9TiXmlNodeC1ENS_8NodeTypeE
libopenzwave.so.1.6:_ZN9TiXmlNodeC2ENS_8NodeTypeE
libopenzwave.so.1.6:_ZN9TiXmlNodeD0Ev
libopenzwave.so.1.6:_ZN9TiXmlNodeD1Ev
libopenzwave.so.1.6:_ZN9TiXmlNodeD2Ev
libopenzwave.so.1.6:_ZN9TiXmlText5ParseEPKcP16TiXmlParsingData13TiXmlEncoding
libopenzwave.so.1.6:_ZNK11TiXmlHandle10FirstChildEPKc
libopenzwave.so.1.6:_ZNK11TiXmlHandle10FirstChildEv
libopenzwave.so.1.6:_ZNK11TiXmlHandle12ChildElementEPKci
libopenzwave.so.1.6:_ZNK11TiXmlHandle12ChildElementEi
libopenzwave.so.1.6:_ZNK11TiXmlHandle17FirstChildElementEPKc
libopenzwave.so.1.6:_ZNK11TiXmlHandle17FirstChildElementEv
libopenzwave.so.1.6:_ZNK11TiXmlHandle5ChildEPKci
libopenzwave.so.1.6:_ZNK11TiXmlHandle5ChildEi
libopenzwave.so.1.6:_ZNK12TiXmlComment5CloneEv
libopenzwave.so.1.6:_ZNK12TiXmlComment5PrintEP8_IO_FILEi
libopenzwave.so.1.6:_ZNK12TiXmlComment6AcceptEP12TiXmlVisitor
libopenzwave.so.1.6:_ZNK12TiXmlComment6CopyToEPS_
libopenzwave.so.1.6:_ZNK12TiXmlElement17QueryIntAttributeEPKcPi
libopenzwave.so.1.6:_ZNK12TiXmlElement20QueryDoubleAttributeEPKcPd
libopenzwave.so.1.6:_ZNK12TiXmlElement5CloneEv
libopenzwave.so.1.6:_ZNK12TiXmlElement5PrintEP8_IO_FILEi
libopenzwave.so.1.6:_ZNK12TiXmlElement6AcceptEP12TiXmlVisitor
libopenzwave.so.1.6:_ZNK12TiXmlElement6CopyToEPS_
libopenzwave.so.1.6:_ZNK12TiXmlElement7GetTextEv
libopenzwave.so.1.6:_ZNK12TiXmlElement9AttributeEPKc
libopenzwave.so.1.6:_ZNK12TiXmlElement9AttributeEPKcPd
libopenzwave.so.1.6:_ZNK12TiXmlElement9AttributeEPKcPi
libopenzwave.so.1.6:_ZNK12TiXmlUnknown5CloneEv
libopenzwave.so.1.6:_ZNK12TiXmlUnknown5PrintEP8_IO_FILEi
libopenzwave.so.1.6:_ZNK12TiXmlUnknown6AcceptEP12TiXmlVisitor
libopenzwave.so.1.6:_ZNK12TiXmlUnknown6CopyToEPS_
libopenzwave.so.1.6:_ZNK13TiXmlDocument5CloneEv
libopenzwave.so.1.6:_ZNK13TiXmlDocument5PrintEP8_IO_FILEi
libopenzwave.so.1.6:_ZNK13TiXmlDocument6AcceptEP12TiXmlVisitor
libopenzwave.so.1.6:_ZNK13TiXmlDocument6CopyToEPS_
libopenzwave.so.1.6:_ZNK13TiXmlDocument8SaveFileEP8_IO_FILE
libopenzwave.so.1.6:_ZNK13TiXmlDocument8SaveFileEPKc
libopenzwave.so.1.6:_ZNK13TiXmlDocument8SaveFileEv
libopenzwave.so.1.6:_ZNK14TiXmlAttribute11DoubleValueEv
libopenzwave.so.1.6:_ZNK14TiXmlAttribute13QueryIntValueEPi
libopenzwave.so.1.6:_ZNK14TiXmlAttribute16QueryDoubleValueEPd
libopenzwave.so.1.6:_ZNK14TiXmlAttribute4NextEv
libopenzwave.so.1.6:_ZNK14TiXmlAttribute5PrintEP8_IO_FILEiP11TiXmlString
libopenzwave.so.1.6:_ZNK14TiXmlAttribute8IntValueEv
libopenzwave.so.1.6:_ZNK14TiXmlAttribute8PreviousEv
libopenzwave.so.1.6:_ZNK16TiXmlDeclaration5CloneEv
libopenzwave.so.1.6:_ZNK16TiXmlDeclaration5PrintEP8_IO_FILEiP11TiXmlString
libopenzwave.so.1.6:_ZNK16TiXmlDeclaration6AcceptEP12TiXmlVisitor
libopenzwave.so.1.6:_ZNK16TiXmlDeclaration6CopyToEPS_
libopenzwave.so.1.6:_ZNK17TiXmlAttributeSet4FindEPKc
libopenzwave.so.1.6:_ZNK9OpenZWave10ValueShort11GetAsStringB5cxx11Ev
libopenzwave.so.1.6:_ZNK9OpenZWave10ValueStore8GetValueERKj
libopenzwave.so.1.6:_ZNK9OpenZWave11ValueBitSet10GetBitMaskEv
libopenzwave.so.1.6:_ZNK9OpenZWave11ValueBitSet10isValidBitEh
libopenzwave.so.1.6:_ZNK9OpenZWave11ValueBitSet11GetAsStringB5cxx11Ev
libopenzwave.so.1.6:_ZNK9OpenZWave11ValueBitSet17GetAsBinaryStringB5cxx11Ev
libopenzwave.so.1.6:_ZNK9OpenZWave11ValueBitSet6GetBitEh
libopenzwave.so.1.6:_ZNK9OpenZWave11ValueBitSet7GetSizeEv
libopenzwave.so.1.6:_ZNK9OpenZWave11ValueBitSet8GetValueEv
libopenzwave.so.1.6:_ZNK9OpenZWave12CommandClass11AppendValueEPNS_3MsgERKNSt7__cxx1112basic_stringIcSt11char_traitsIcESaIcEEEh
libopenzwave.so.1.6:_ZNK9OpenZWave12CommandClass12ExtractValueB5cxx11EPKhPhS3_h
libopenzwave.so.1.6:_ZNK9OpenZWave12CommandClass13GetNodeUnsafeEv
libopenzwave.so.1.6:_ZNK9OpenZWave12CommandClass14ValueToIntegerERKNSt7__cxx1112basic_stringIcSt11char_traitsIcESaIcEEEPhS9_
libopenzwave.so.1.6:_ZNK9OpenZWave12CommandClass18GetAppendValueSizeERKNSt7__cxx1112basic_stringIcSt11char_traitsIcESaIcEEE
libopenzwave.so.1.6:_ZNK9OpenZWave12CommandClass9GetDriverEv
libopenzwave.so.1.6:_ZNK9OpenZWave12Localization13GetValueLabelB5cxx11Ehti
libopenzwave.so.1.6:_ZNK9OpenZWave12Localization16GetValueItemHelpB5cxx11Ehtii
libopenzwave.so.1.6:_ZNK9OpenZWave12Localization17GetValueItemLabelB5cxx11Ehtii
libopenzwave.so.1.6:_ZNK9OpenZWave12Notification11GetAsStringB5cxx11Ev
libopenzwave.so.1.6:_ZNK9OpenZWave13ValueSchedule11GetAsStringB5cxx11Ev
libopenzwave.so.1.6:_ZNK9OpenZWave13ValueSchedule14GetSwitchPointEhPhS1_Pa
libopenzwave.so.1.6:_ZNK9OpenZWave13ValueSchedule15FindSwitchPointEhhPh
libopenzwave.so.1.6:_ZNK9OpenZWave16SimpleHTTPClient10HttpSocket13IsRedirectingEv
libopenzwave.so.1.6:_ZNK9OpenZWave16SimpleHTTPClient10HttpSocket3HdrEPKc
libopenzwave.so.1.6:_ZNK9OpenZWave16SimpleHTTPClient10HttpSocket9IsSuccessEv
libopenzwave.so.1.6:_ZNK9OpenZWave19CompatOptionManager10GetFlagIntENS_17CompatOptionFlagsE
libopenzwave.so.1.6:_ZNK9OpenZWave19CompatOptionManager11GetFlagBoolENS_17CompatOptionFlagsE
libopenzwave.so.1.6:_ZNK9OpenZWave19CompatOptionManager11GetFlagByteENS_17CompatOptionFlagsE
libopenzwave.so.1.6:_ZNK9OpenZWave19CompatOptionManager11GetFlagNameB5cxx11ENS_17CompatOptionFlagsE
libopenzwave.so.1.6:_ZNK9OpenZWave19CompatOptionManager12GetFlagShortENS_17CompatOptionFlagsE
libopenzwave.so.1.6:_ZNK9OpenZWave3Msg9GetDriverEv
libopenzwave.so.1.6:_ZNK9OpenZWave4Node15GetCommandClassEhb
libopenzwave.so.1.6:_ZNK9OpenZWave4Node9GetDriverEv
libopenzwave.so.1.6:_ZNK9OpenZWave5Value7GetHelpB5cxx11Ev
libopenzwave.so.1.6:_ZNK9OpenZWave5Value8GetLabelB5cxx11Ev
libopenzwave.so.1.6:_ZNK9OpenZWave8Bitfield13GetNumSetBitsEv
libopenzwave.so.1.6:_ZNK9OpenZWave8Bitfield3EndEv
libopenzwave.so.1.6:_ZNK9OpenZWave8Bitfield5BeginEv
libopenzwave.so.1.6:_ZNK9OpenZWave8Bitfield5IsSetEh
libopenzwave.so.1.6:_ZNK9OpenZWave8Bitfield7GetSizeEv
libopenzwave.so.1.6:_ZNK9OpenZWave8Bitfield8GetValueEv
libopenzwave.so.1.6:_ZNK9OpenZWave8Bitfield8IteratordeEv
libopenzwave.so.1.6:_ZNK9OpenZWave8ValueInt11GetAsStringB5cxx11Ev
libopenzwave.so.1.6:_ZNK9OpenZWave8ValueRaw11GetAsStringB5cxx11Ev
libopenzwave.so.1.6:_ZNK9OpenZWave9ValueByte11GetAsStringB5cxx11Ev
libopenzwave.so.1.6:_ZNK9OpenZWave9ValueList17GetItemIdxByLabelERKNSt7__cxx1112basic_stringIcSt11char_traitsIcESaIcEEE
libopenzwave.so.1.6:_ZNK9OpenZWave9ValueList17GetItemIdxByValueEi
libopenzwave.so.1.6:_ZNK9OpenZWave9ValueList7GetItemEv
libopenzwave.so.1.6:_ZNK9TiXmlNode10FirstChildEPKc
libopenzwave.so.1.6:_ZNK9TiXmlNode11GetDocumentEv
libopenzwave.so.1.6:_ZNK9TiXmlNode11NextSiblingEPKc
libopenzwave.so.1.6:_ZNK9TiXmlNode15IterateChildrenEPKS_
libopenzwave.so.1.6:_ZNK9TiXmlNode15IterateChildrenEPKcPKS_
libopenzwave.so.1.6:_ZNK9TiXmlNode15PreviousSiblingEPKc
libopenzwave.so.1.6:_ZNK9TiXmlNode17FirstChildElementEPKc
libopenzwave.so.1.6:_ZNK9TiXmlNode17FirstChildElementEv
libopenzwave.so.1.6:_ZNK9TiXmlNode18NextSiblingElementEPKc
libopenzwave.so.1.6:_ZNK9TiXmlNode18NextSiblingElementEv
libopenzwave.so.1.6:_ZNK9TiXmlNode6CopyToEPS_
libopenzwave.so.1.6:_ZNK9TiXmlNode9LastChildEPKc
libopenzwave.so.1.6:_ZNK9TiXmlText5BlankEv
libopenzwave.so.1.6:_ZNK9TiXmlText5CloneEv
libopenzwave.so.1.6:_ZNK9TiXmlText5PrintEP8_IO_FILEi
libopenzwave.so.1.6:_ZNK9TiXmlText6AcceptEP12TiXmlVisitor
libopenzwave.so.1.6:_ZNK9TiXmlText6CopyToEPS_
libopenzwave.so.1.6:_ZNSt17_Function_handlerIFvjESt5_BindIFMN9OpenZWave12CentralSceneEFvjEPS3_hEEE10_M_managerERSt9_Any_dataRKSA_St18_Manager_operation
libopenzwave.so.1.6:_ZNSt17_Function_handlerIFvjESt5_BindIFMN9OpenZWave12CentralSceneEFvjEPS3_hEEE9_M_invokeERKSt9_Any_dataOj
libopenzwave.so.1.6:_ZNSt17_Function_handlerIFvjESt5_BindIFMN9OpenZWave15SceneActivationEFvjEPS3_jEEE10_M_managerERSt9_Any_dataRKSA_St18_Manager_operation
libopenzwave.so.1.6:_ZNSt17_Function_handlerIFvjESt5_BindIFMN9OpenZWave15SceneActivationEFvjEPS3_jEEE9_M_invokeERKSt9_Any_dataOj
libopenzwave.so.1.6:_ZNSt17_Function_handlerIFvjESt5_BindIFMN9OpenZWave5AlarmEFvjEPS3_hEEE10_M_managerERSt9_Any_dataRKSA_St18_Manager_operation
libopenzwave.so.1.6:_ZNSt17_Function_handlerIFvjESt5_BindIFMN9OpenZWave5AlarmEFvjEPS3_hEEE9_M_invokeERKSt9_Any_dataOj
libopenzwave.so.1.6:_ZNSt17_Function_handlerIFvjESt5_BindIFMN9OpenZWave6WakeUpEFvjEPS3_iEEE10_M_managerERSt9_Any_dataRKSA_St18_Manager_operation
libopenzwave.so.1.6:_ZNSt17_Function_handlerIFvjESt5_BindIFMN9OpenZWave6WakeUpEFvjEPS3_iEEE9_M_invokeERKSt9_Any_dataOj
libopenzwave.so.1.6:_ZlsRSoPKN9OpenZWave12NotificationE
libopenzwave.so.1.6:_ZlsRSoRKN9OpenZWave12NotificationE
libopenzwave.so.1.6:_ZplPKcRK11TiXmlString
libopenzwave.so.1.6:_ZplRK11TiXmlStringPKc
libopenzwave.so.1.6:_ZplRK11TiXmlStringS1_
libopenzwave.so.1.6:aes_cbc_decrypt
libopenzwave.so.1.6:aes_cbc_encrypt
libopenzwave.so.1.6:aes_cfb_decrypt
libopenzwave.so.1.6:aes_cfb_encrypt
libopenzwave.so.1.6:aes_ctr_crypt
libopenzwave.so.1.6:aes_decrypt
libopenzwave.so.1.6:aes_decrypt_key
libopenzwave.so.1.6:aes_decrypt_key128
libopenzwave.so.1.6:aes_decrypt_key192
libopenzwave.so.1.6:aes_decrypt_key256
libopenzwave.so.1.6:aes_ecb_decrypt
libopenzwave.so.1.6:aes_ecb_encrypt
libopenzwave.so.1.6:aes_encrypt
libopenzwave.so.1.6:aes_encrypt_key
libopenzwave.so.1.6:aes_encrypt_key128
libopenzwave.so.1.6:aes_encrypt_key192
libopenzwave.so.1.6:aes_encrypt_key256
libopenzwave.so.1.6:aes_init
libopenzwave.so.1.6:aes_mode_reset
libopenzwave.so.1.6:aes_ofb_crypt
libopenzwave.so.1.6:aes_test_alignment_detection
libopenzwave.so.1.6:hid_close
libopenzwave.so.1.6:hid_enumerate
libopenzwave.so.1.6:hid_error
libopenzwave.so.1.6:hid_exit
libopenzwave.so.1.6:hid_free_enumeration
libopenzwave.so.1.6:hid_get_feature_report
libopenzwave.so.1.6:hid_get_indexed_string
libopenzwave.so.1.6:hid_get_manufacturer_string
libopenzwave.so.1.6:hid_get_product_string
libopenzwave.so.1.6:hid_get_serial_number_string
libopenzwave.so.1.6:hid_init
libopenzwave.so.1.6:hid_open
libopenzwave.so.1.6:hid_open_path
libopenzwave.so.1.6:hid_read
libopenzwave.so.1.6:hid_read_timeout
libopenzwave.so.1.6:hid_send_feature_report
libopenzwave.so.1.6:hid_set_nonblocking
libopenzwave.so.1.6:hid_write
